ARM GAS  /var/folders/md/lgcc8l7571l9vt9sx0g0zflw0000gn/T//ccWpNrmC.s 			page 1


   1              		.cpu cortex-m4
   2              		.eabi_attribute 27, 1
   3              		.eabi_attribute 28, 1
   4              		.eabi_attribute 20, 1
   5              		.eabi_attribute 21, 1
   6              		.eabi_attribute 23, 3
   7              		.eabi_attribute 24, 1
   8              		.eabi_attribute 25, 1
   9              		.eabi_attribute 26, 1
  10              		.eabi_attribute 30, 1
  11              		.eabi_attribute 34, 1
  12              		.eabi_attribute 18, 4
  13              		.file	"stm32f3xx_hal_flash_ex.c"
  14              		.text
  15              	.Ltext0:
  16              		.cfi_sections	.debug_frame
  17              		.section	.text.FLASH_MassErase,"ax",%progbits
  18              		.align	1
  19              		.arch armv7e-m
  20              		.syntax unified
  21              		.thumb
  22              		.thumb_func
  23              		.fpu fpv4-sp-d16
  25              	FLASH_MassErase:
  26              	.LFB132:
  27              		.file 1 "Drivers/STM32F3xx_HAL_Driver/Src/stm32f3xx_hal_flash_ex.c"
   1:Drivers/STM32F3xx_HAL_Driver/Src/stm32f3xx_hal_flash_ex.c **** /**
   2:Drivers/STM32F3xx_HAL_Driver/Src/stm32f3xx_hal_flash_ex.c ****   ******************************************************************************
   3:Drivers/STM32F3xx_HAL_Driver/Src/stm32f3xx_hal_flash_ex.c ****   * @file    stm32f3xx_hal_flash_ex.c
   4:Drivers/STM32F3xx_HAL_Driver/Src/stm32f3xx_hal_flash_ex.c ****   * @author  MCD Application Team
   5:Drivers/STM32F3xx_HAL_Driver/Src/stm32f3xx_hal_flash_ex.c ****   * @brief   Extended FLASH HAL module driver.
   6:Drivers/STM32F3xx_HAL_Driver/Src/stm32f3xx_hal_flash_ex.c ****   *    
   7:Drivers/STM32F3xx_HAL_Driver/Src/stm32f3xx_hal_flash_ex.c ****   *          This file provides firmware functions to manage the following 
   8:Drivers/STM32F3xx_HAL_Driver/Src/stm32f3xx_hal_flash_ex.c ****   *          functionalities of the FLASH peripheral:
   9:Drivers/STM32F3xx_HAL_Driver/Src/stm32f3xx_hal_flash_ex.c ****   *           + Extended Initialization/de-initialization functions
  10:Drivers/STM32F3xx_HAL_Driver/Src/stm32f3xx_hal_flash_ex.c ****   *           + Extended I/O operation functions
  11:Drivers/STM32F3xx_HAL_Driver/Src/stm32f3xx_hal_flash_ex.c ****   *           + Extended Peripheral Control functions 
  12:Drivers/STM32F3xx_HAL_Driver/Src/stm32f3xx_hal_flash_ex.c ****   *         
  13:Drivers/STM32F3xx_HAL_Driver/Src/stm32f3xx_hal_flash_ex.c ****   @verbatim
  14:Drivers/STM32F3xx_HAL_Driver/Src/stm32f3xx_hal_flash_ex.c ****   ==============================================================================
  15:Drivers/STM32F3xx_HAL_Driver/Src/stm32f3xx_hal_flash_ex.c ****                ##### Flash peripheral extended features  #####
  16:Drivers/STM32F3xx_HAL_Driver/Src/stm32f3xx_hal_flash_ex.c ****   ==============================================================================
  17:Drivers/STM32F3xx_HAL_Driver/Src/stm32f3xx_hal_flash_ex.c ****            
  18:Drivers/STM32F3xx_HAL_Driver/Src/stm32f3xx_hal_flash_ex.c ****                       ##### How to use this driver #####
  19:Drivers/STM32F3xx_HAL_Driver/Src/stm32f3xx_hal_flash_ex.c ****   ==============================================================================
  20:Drivers/STM32F3xx_HAL_Driver/Src/stm32f3xx_hal_flash_ex.c ****   [..] This driver provides functions to configure and program the FLASH memory 
  21:Drivers/STM32F3xx_HAL_Driver/Src/stm32f3xx_hal_flash_ex.c ****        of all STM32F3xxx devices. It includes
  22:Drivers/STM32F3xx_HAL_Driver/Src/stm32f3xx_hal_flash_ex.c ****        
  23:Drivers/STM32F3xx_HAL_Driver/Src/stm32f3xx_hal_flash_ex.c ****         (++) Set/Reset the write protection
  24:Drivers/STM32F3xx_HAL_Driver/Src/stm32f3xx_hal_flash_ex.c ****         (++) Program the user Option Bytes
  25:Drivers/STM32F3xx_HAL_Driver/Src/stm32f3xx_hal_flash_ex.c ****         (++) Get the Read protection Level
  26:Drivers/STM32F3xx_HAL_Driver/Src/stm32f3xx_hal_flash_ex.c ****   
  27:Drivers/STM32F3xx_HAL_Driver/Src/stm32f3xx_hal_flash_ex.c ****   @endverbatim
  28:Drivers/STM32F3xx_HAL_Driver/Src/stm32f3xx_hal_flash_ex.c ****   ******************************************************************************
  29:Drivers/STM32F3xx_HAL_Driver/Src/stm32f3xx_hal_flash_ex.c ****   * @attention
  30:Drivers/STM32F3xx_HAL_Driver/Src/stm32f3xx_hal_flash_ex.c ****   *
  31:Drivers/STM32F3xx_HAL_Driver/Src/stm32f3xx_hal_flash_ex.c ****   * <h2><center>&copy; COPYRIGHT(c) 2016 STMicroelectronics</center></h2>
ARM GAS  /var/folders/md/lgcc8l7571l9vt9sx0g0zflw0000gn/T//ccWpNrmC.s 			page 2


  32:Drivers/STM32F3xx_HAL_Driver/Src/stm32f3xx_hal_flash_ex.c ****   *
  33:Drivers/STM32F3xx_HAL_Driver/Src/stm32f3xx_hal_flash_ex.c ****   * Redistribution and use in source and binary forms, with or without modification,
  34:Drivers/STM32F3xx_HAL_Driver/Src/stm32f3xx_hal_flash_ex.c ****   * are permitted provided that the following conditions are met:
  35:Drivers/STM32F3xx_HAL_Driver/Src/stm32f3xx_hal_flash_ex.c ****   *   1. Redistributions of source code must retain the above copyright notice,
  36:Drivers/STM32F3xx_HAL_Driver/Src/stm32f3xx_hal_flash_ex.c ****   *      this list of conditions and the following disclaimer.
  37:Drivers/STM32F3xx_HAL_Driver/Src/stm32f3xx_hal_flash_ex.c ****   *   2. Redistributions in binary form must reproduce the above copyright notice,
  38:Drivers/STM32F3xx_HAL_Driver/Src/stm32f3xx_hal_flash_ex.c ****   *      this list of conditions and the following disclaimer in the documentation
  39:Drivers/STM32F3xx_HAL_Driver/Src/stm32f3xx_hal_flash_ex.c ****   *      and/or other materials provided with the distribution.
  40:Drivers/STM32F3xx_HAL_Driver/Src/stm32f3xx_hal_flash_ex.c ****   *   3. Neither the name of STMicroelectronics nor the names of its contributors
  41:Drivers/STM32F3xx_HAL_Driver/Src/stm32f3xx_hal_flash_ex.c ****   *      may be used to endorse or promote products derived from this software
  42:Drivers/STM32F3xx_HAL_Driver/Src/stm32f3xx_hal_flash_ex.c ****   *      without specific prior written permission.
  43:Drivers/STM32F3xx_HAL_Driver/Src/stm32f3xx_hal_flash_ex.c ****   *
  44:Drivers/STM32F3xx_HAL_Driver/Src/stm32f3xx_hal_flash_ex.c ****   * THIS SOFTWARE IS PROVIDED BY THE COPYRIGHT HOLDERS AND CONTRIBUTORS "AS IS"
  45:Drivers/STM32F3xx_HAL_Driver/Src/stm32f3xx_hal_flash_ex.c ****   * AND ANY EXPRESS OR IMPLIED WARRANTIES, INCLUDING, BUT NOT LIMITED TO, THE
  46:Drivers/STM32F3xx_HAL_Driver/Src/stm32f3xx_hal_flash_ex.c ****   * IMPLIED WARRANTIES OF MERCHANTABILITY AND FITNESS FOR A PARTICULAR PURPOSE ARE
  47:Drivers/STM32F3xx_HAL_Driver/Src/stm32f3xx_hal_flash_ex.c ****   * DISCLAIMED. IN NO EVENT SHALL THE COPYRIGHT HOLDER OR CONTRIBUTORS BE LIABLE
  48:Drivers/STM32F3xx_HAL_Driver/Src/stm32f3xx_hal_flash_ex.c ****   * FOR ANY DIRECT, INDIRECT, INCIDENTAL, SPECIAL, EXEMPLARY, OR CONSEQUENTIAL
  49:Drivers/STM32F3xx_HAL_Driver/Src/stm32f3xx_hal_flash_ex.c ****   * DAMAGES (INCLUDING, BUT NOT LIMITED TO, PROCUREMENT OF SUBSTITUTE GOODS OR
  50:Drivers/STM32F3xx_HAL_Driver/Src/stm32f3xx_hal_flash_ex.c ****   * SERVICES; LOSS OF USE, DATA, OR PROFITS; OR BUSINESS INTERRUPTION) HOWEVER
  51:Drivers/STM32F3xx_HAL_Driver/Src/stm32f3xx_hal_flash_ex.c ****   * CAUSED AND ON ANY THEORY OF LIABILITY, WHETHER IN CONTRACT, STRICT LIABILITY,
  52:Drivers/STM32F3xx_HAL_Driver/Src/stm32f3xx_hal_flash_ex.c ****   * OR TORT (INCLUDING NEGLIGENCE OR OTHERWISE) ARISING IN ANY WAY OUT OF THE USE
  53:Drivers/STM32F3xx_HAL_Driver/Src/stm32f3xx_hal_flash_ex.c ****   * OF THIS SOFTWARE, EVEN IF ADVISED OF THE POSSIBILITY OF SUCH DAMAGE.
  54:Drivers/STM32F3xx_HAL_Driver/Src/stm32f3xx_hal_flash_ex.c ****   *
  55:Drivers/STM32F3xx_HAL_Driver/Src/stm32f3xx_hal_flash_ex.c ****   ******************************************************************************  
  56:Drivers/STM32F3xx_HAL_Driver/Src/stm32f3xx_hal_flash_ex.c ****   */
  57:Drivers/STM32F3xx_HAL_Driver/Src/stm32f3xx_hal_flash_ex.c **** 
  58:Drivers/STM32F3xx_HAL_Driver/Src/stm32f3xx_hal_flash_ex.c **** /* Includes ------------------------------------------------------------------*/
  59:Drivers/STM32F3xx_HAL_Driver/Src/stm32f3xx_hal_flash_ex.c **** #include "stm32f3xx_hal.h"
  60:Drivers/STM32F3xx_HAL_Driver/Src/stm32f3xx_hal_flash_ex.c **** 
  61:Drivers/STM32F3xx_HAL_Driver/Src/stm32f3xx_hal_flash_ex.c **** /** @addtogroup STM32F3xx_HAL_Driver
  62:Drivers/STM32F3xx_HAL_Driver/Src/stm32f3xx_hal_flash_ex.c ****   * @{
  63:Drivers/STM32F3xx_HAL_Driver/Src/stm32f3xx_hal_flash_ex.c ****   */
  64:Drivers/STM32F3xx_HAL_Driver/Src/stm32f3xx_hal_flash_ex.c **** #ifdef HAL_FLASH_MODULE_ENABLED
  65:Drivers/STM32F3xx_HAL_Driver/Src/stm32f3xx_hal_flash_ex.c **** 
  66:Drivers/STM32F3xx_HAL_Driver/Src/stm32f3xx_hal_flash_ex.c **** /** @addtogroup FLASH
  67:Drivers/STM32F3xx_HAL_Driver/Src/stm32f3xx_hal_flash_ex.c ****   * @{
  68:Drivers/STM32F3xx_HAL_Driver/Src/stm32f3xx_hal_flash_ex.c ****   */
  69:Drivers/STM32F3xx_HAL_Driver/Src/stm32f3xx_hal_flash_ex.c **** /** @addtogroup FLASH_Private_Variables
  70:Drivers/STM32F3xx_HAL_Driver/Src/stm32f3xx_hal_flash_ex.c ****  * @{
  71:Drivers/STM32F3xx_HAL_Driver/Src/stm32f3xx_hal_flash_ex.c ****  */
  72:Drivers/STM32F3xx_HAL_Driver/Src/stm32f3xx_hal_flash_ex.c **** /* Variables used for Erase pages under interruption*/
  73:Drivers/STM32F3xx_HAL_Driver/Src/stm32f3xx_hal_flash_ex.c **** extern FLASH_ProcessTypeDef pFlash;
  74:Drivers/STM32F3xx_HAL_Driver/Src/stm32f3xx_hal_flash_ex.c **** /**
  75:Drivers/STM32F3xx_HAL_Driver/Src/stm32f3xx_hal_flash_ex.c ****   * @}
  76:Drivers/STM32F3xx_HAL_Driver/Src/stm32f3xx_hal_flash_ex.c ****   */
  77:Drivers/STM32F3xx_HAL_Driver/Src/stm32f3xx_hal_flash_ex.c **** 
  78:Drivers/STM32F3xx_HAL_Driver/Src/stm32f3xx_hal_flash_ex.c **** /**
  79:Drivers/STM32F3xx_HAL_Driver/Src/stm32f3xx_hal_flash_ex.c ****   * @}
  80:Drivers/STM32F3xx_HAL_Driver/Src/stm32f3xx_hal_flash_ex.c ****   */
  81:Drivers/STM32F3xx_HAL_Driver/Src/stm32f3xx_hal_flash_ex.c ****   
  82:Drivers/STM32F3xx_HAL_Driver/Src/stm32f3xx_hal_flash_ex.c **** /** @defgroup FLASHEx FLASHEx
  83:Drivers/STM32F3xx_HAL_Driver/Src/stm32f3xx_hal_flash_ex.c ****   * @brief FLASH HAL Extension module driver
  84:Drivers/STM32F3xx_HAL_Driver/Src/stm32f3xx_hal_flash_ex.c ****   * @{
  85:Drivers/STM32F3xx_HAL_Driver/Src/stm32f3xx_hal_flash_ex.c ****   */
  86:Drivers/STM32F3xx_HAL_Driver/Src/stm32f3xx_hal_flash_ex.c **** 
  87:Drivers/STM32F3xx_HAL_Driver/Src/stm32f3xx_hal_flash_ex.c **** /* Private typedef -----------------------------------------------------------*/
  88:Drivers/STM32F3xx_HAL_Driver/Src/stm32f3xx_hal_flash_ex.c **** /* Private define ------------------------------------------------------------*/
ARM GAS  /var/folders/md/lgcc8l7571l9vt9sx0g0zflw0000gn/T//ccWpNrmC.s 			page 3


  89:Drivers/STM32F3xx_HAL_Driver/Src/stm32f3xx_hal_flash_ex.c **** /** @defgroup FLASHEx_Private_Constants FLASHEx Private Constants
  90:Drivers/STM32F3xx_HAL_Driver/Src/stm32f3xx_hal_flash_ex.c ****  * @{
  91:Drivers/STM32F3xx_HAL_Driver/Src/stm32f3xx_hal_flash_ex.c ****  */
  92:Drivers/STM32F3xx_HAL_Driver/Src/stm32f3xx_hal_flash_ex.c **** #define FLASH_POSITION_IWDGSW_BIT        (uint32_t)POSITION_VAL(FLASH_OBR_IWDG_SW)
  93:Drivers/STM32F3xx_HAL_Driver/Src/stm32f3xx_hal_flash_ex.c **** #define FLASH_POSITION_OB_USERDATA0_BIT  (uint32_t)POSITION_VAL(FLASH_OBR_DATA0)
  94:Drivers/STM32F3xx_HAL_Driver/Src/stm32f3xx_hal_flash_ex.c **** #define FLASH_POSITION_OB_USERDATA1_BIT  (uint32_t)POSITION_VAL(FLASH_OBR_DATA1)
  95:Drivers/STM32F3xx_HAL_Driver/Src/stm32f3xx_hal_flash_ex.c **** /**
  96:Drivers/STM32F3xx_HAL_Driver/Src/stm32f3xx_hal_flash_ex.c ****   * @}
  97:Drivers/STM32F3xx_HAL_Driver/Src/stm32f3xx_hal_flash_ex.c ****   */
  98:Drivers/STM32F3xx_HAL_Driver/Src/stm32f3xx_hal_flash_ex.c **** 
  99:Drivers/STM32F3xx_HAL_Driver/Src/stm32f3xx_hal_flash_ex.c **** /* Private macro -------------------------------------------------------------*/
 100:Drivers/STM32F3xx_HAL_Driver/Src/stm32f3xx_hal_flash_ex.c **** /** @defgroup FLASHEx_Private_Macros FLASHEx Private Macros
 101:Drivers/STM32F3xx_HAL_Driver/Src/stm32f3xx_hal_flash_ex.c ****   * @{
 102:Drivers/STM32F3xx_HAL_Driver/Src/stm32f3xx_hal_flash_ex.c ****   */
 103:Drivers/STM32F3xx_HAL_Driver/Src/stm32f3xx_hal_flash_ex.c **** /**
 104:Drivers/STM32F3xx_HAL_Driver/Src/stm32f3xx_hal_flash_ex.c ****   * @}
 105:Drivers/STM32F3xx_HAL_Driver/Src/stm32f3xx_hal_flash_ex.c ****   */ 
 106:Drivers/STM32F3xx_HAL_Driver/Src/stm32f3xx_hal_flash_ex.c **** 
 107:Drivers/STM32F3xx_HAL_Driver/Src/stm32f3xx_hal_flash_ex.c **** /* Private variables ---------------------------------------------------------*/
 108:Drivers/STM32F3xx_HAL_Driver/Src/stm32f3xx_hal_flash_ex.c **** /* Private function prototypes -----------------------------------------------*/
 109:Drivers/STM32F3xx_HAL_Driver/Src/stm32f3xx_hal_flash_ex.c **** /** @defgroup FLASHEx_Private_Functions FLASHEx Private Functions
 110:Drivers/STM32F3xx_HAL_Driver/Src/stm32f3xx_hal_flash_ex.c ****  * @{
 111:Drivers/STM32F3xx_HAL_Driver/Src/stm32f3xx_hal_flash_ex.c ****  */
 112:Drivers/STM32F3xx_HAL_Driver/Src/stm32f3xx_hal_flash_ex.c **** /* Erase operations */
 113:Drivers/STM32F3xx_HAL_Driver/Src/stm32f3xx_hal_flash_ex.c **** static void              FLASH_MassErase(void);
 114:Drivers/STM32F3xx_HAL_Driver/Src/stm32f3xx_hal_flash_ex.c **** void    FLASH_PageErase(uint32_t PageAddress);
 115:Drivers/STM32F3xx_HAL_Driver/Src/stm32f3xx_hal_flash_ex.c **** 
 116:Drivers/STM32F3xx_HAL_Driver/Src/stm32f3xx_hal_flash_ex.c **** /* Option bytes control */
 117:Drivers/STM32F3xx_HAL_Driver/Src/stm32f3xx_hal_flash_ex.c **** static HAL_StatusTypeDef FLASH_OB_EnableWRP(uint32_t WriteProtectPage);
 118:Drivers/STM32F3xx_HAL_Driver/Src/stm32f3xx_hal_flash_ex.c **** static HAL_StatusTypeDef FLASH_OB_DisableWRP(uint32_t WriteProtectPage);
 119:Drivers/STM32F3xx_HAL_Driver/Src/stm32f3xx_hal_flash_ex.c **** static HAL_StatusTypeDef FLASH_OB_RDP_LevelConfig(uint8_t ReadProtectLevel);
 120:Drivers/STM32F3xx_HAL_Driver/Src/stm32f3xx_hal_flash_ex.c **** static HAL_StatusTypeDef FLASH_OB_UserConfig(uint8_t UserConfig);
 121:Drivers/STM32F3xx_HAL_Driver/Src/stm32f3xx_hal_flash_ex.c **** static HAL_StatusTypeDef FLASH_OB_ProgramData(uint32_t Address, uint8_t Data);
 122:Drivers/STM32F3xx_HAL_Driver/Src/stm32f3xx_hal_flash_ex.c **** static uint32_t          FLASH_OB_GetWRP(void);
 123:Drivers/STM32F3xx_HAL_Driver/Src/stm32f3xx_hal_flash_ex.c **** static uint32_t          FLASH_OB_GetRDP(void);
 124:Drivers/STM32F3xx_HAL_Driver/Src/stm32f3xx_hal_flash_ex.c **** static uint8_t           FLASH_OB_GetUser(void);
 125:Drivers/STM32F3xx_HAL_Driver/Src/stm32f3xx_hal_flash_ex.c **** 
 126:Drivers/STM32F3xx_HAL_Driver/Src/stm32f3xx_hal_flash_ex.c **** /**
 127:Drivers/STM32F3xx_HAL_Driver/Src/stm32f3xx_hal_flash_ex.c ****   * @}
 128:Drivers/STM32F3xx_HAL_Driver/Src/stm32f3xx_hal_flash_ex.c ****   */
 129:Drivers/STM32F3xx_HAL_Driver/Src/stm32f3xx_hal_flash_ex.c **** 
 130:Drivers/STM32F3xx_HAL_Driver/Src/stm32f3xx_hal_flash_ex.c **** /* Exported functions ---------------------------------------------------------*/
 131:Drivers/STM32F3xx_HAL_Driver/Src/stm32f3xx_hal_flash_ex.c **** /** @defgroup FLASHEx_Exported_Functions FLASHEx Exported Functions
 132:Drivers/STM32F3xx_HAL_Driver/Src/stm32f3xx_hal_flash_ex.c ****   * @{
 133:Drivers/STM32F3xx_HAL_Driver/Src/stm32f3xx_hal_flash_ex.c ****   */
 134:Drivers/STM32F3xx_HAL_Driver/Src/stm32f3xx_hal_flash_ex.c ****   
 135:Drivers/STM32F3xx_HAL_Driver/Src/stm32f3xx_hal_flash_ex.c **** /** @defgroup FLASHEx_Exported_Functions_Group1 FLASHEx Memory Erasing functions
 136:Drivers/STM32F3xx_HAL_Driver/Src/stm32f3xx_hal_flash_ex.c ****  *  @brief   FLASH Memory Erasing functions
 137:Drivers/STM32F3xx_HAL_Driver/Src/stm32f3xx_hal_flash_ex.c ****   *
 138:Drivers/STM32F3xx_HAL_Driver/Src/stm32f3xx_hal_flash_ex.c **** @verbatim   
 139:Drivers/STM32F3xx_HAL_Driver/Src/stm32f3xx_hal_flash_ex.c ****   ==============================================================================
 140:Drivers/STM32F3xx_HAL_Driver/Src/stm32f3xx_hal_flash_ex.c ****                 ##### FLASH Erasing Programming functions ##### 
 141:Drivers/STM32F3xx_HAL_Driver/Src/stm32f3xx_hal_flash_ex.c ****   ==============================================================================
 142:Drivers/STM32F3xx_HAL_Driver/Src/stm32f3xx_hal_flash_ex.c **** 
 143:Drivers/STM32F3xx_HAL_Driver/Src/stm32f3xx_hal_flash_ex.c ****     [..] The FLASH Memory Erasing functions, includes the following functions:
 144:Drivers/STM32F3xx_HAL_Driver/Src/stm32f3xx_hal_flash_ex.c ****     (+) @ref HAL_FLASHEx_Erase: return only when erase has been done
 145:Drivers/STM32F3xx_HAL_Driver/Src/stm32f3xx_hal_flash_ex.c ****     (+) @ref HAL_FLASHEx_Erase_IT: end of erase is done when @ref HAL_FLASH_EndOfOperationCallback 
ARM GAS  /var/folders/md/lgcc8l7571l9vt9sx0g0zflw0000gn/T//ccWpNrmC.s 			page 4


 146:Drivers/STM32F3xx_HAL_Driver/Src/stm32f3xx_hal_flash_ex.c ****         is called with parameter 0xFFFFFFFF
 147:Drivers/STM32F3xx_HAL_Driver/Src/stm32f3xx_hal_flash_ex.c **** 
 148:Drivers/STM32F3xx_HAL_Driver/Src/stm32f3xx_hal_flash_ex.c ****     [..] Any operation of erase should follow these steps:
 149:Drivers/STM32F3xx_HAL_Driver/Src/stm32f3xx_hal_flash_ex.c ****     (#) Call the @ref HAL_FLASH_Unlock() function to enable the flash control register and 
 150:Drivers/STM32F3xx_HAL_Driver/Src/stm32f3xx_hal_flash_ex.c ****         program memory access.
 151:Drivers/STM32F3xx_HAL_Driver/Src/stm32f3xx_hal_flash_ex.c ****     (#) Call the desired function to erase page.
 152:Drivers/STM32F3xx_HAL_Driver/Src/stm32f3xx_hal_flash_ex.c ****     (#) Call the @ref HAL_FLASH_Lock() to disable the flash program memory access 
 153:Drivers/STM32F3xx_HAL_Driver/Src/stm32f3xx_hal_flash_ex.c ****        (recommended to protect the FLASH memory against possible unwanted operation).
 154:Drivers/STM32F3xx_HAL_Driver/Src/stm32f3xx_hal_flash_ex.c **** 
 155:Drivers/STM32F3xx_HAL_Driver/Src/stm32f3xx_hal_flash_ex.c **** @endverbatim
 156:Drivers/STM32F3xx_HAL_Driver/Src/stm32f3xx_hal_flash_ex.c ****   * @{
 157:Drivers/STM32F3xx_HAL_Driver/Src/stm32f3xx_hal_flash_ex.c ****   */
 158:Drivers/STM32F3xx_HAL_Driver/Src/stm32f3xx_hal_flash_ex.c ****   
 159:Drivers/STM32F3xx_HAL_Driver/Src/stm32f3xx_hal_flash_ex.c **** 
 160:Drivers/STM32F3xx_HAL_Driver/Src/stm32f3xx_hal_flash_ex.c **** /**
 161:Drivers/STM32F3xx_HAL_Driver/Src/stm32f3xx_hal_flash_ex.c ****   * @brief  Perform a mass erase or erase the specified FLASH memory pages
 162:Drivers/STM32F3xx_HAL_Driver/Src/stm32f3xx_hal_flash_ex.c ****   * @note   To correctly run this function, the @ref HAL_FLASH_Unlock() function
 163:Drivers/STM32F3xx_HAL_Driver/Src/stm32f3xx_hal_flash_ex.c ****   *         must be called before.
 164:Drivers/STM32F3xx_HAL_Driver/Src/stm32f3xx_hal_flash_ex.c ****   *         Call the @ref HAL_FLASH_Lock() to disable the flash memory access 
 165:Drivers/STM32F3xx_HAL_Driver/Src/stm32f3xx_hal_flash_ex.c ****   *         (recommended to protect the FLASH memory against possible unwanted operation)
 166:Drivers/STM32F3xx_HAL_Driver/Src/stm32f3xx_hal_flash_ex.c ****   * @param[in]  pEraseInit pointer to an FLASH_EraseInitTypeDef structure that
 167:Drivers/STM32F3xx_HAL_Driver/Src/stm32f3xx_hal_flash_ex.c ****   *         contains the configuration information for the erasing.
 168:Drivers/STM32F3xx_HAL_Driver/Src/stm32f3xx_hal_flash_ex.c ****   *
 169:Drivers/STM32F3xx_HAL_Driver/Src/stm32f3xx_hal_flash_ex.c ****   * @param[out]  PageError pointer to variable  that
 170:Drivers/STM32F3xx_HAL_Driver/Src/stm32f3xx_hal_flash_ex.c ****   *         contains the configuration information on faulty page in case of error
 171:Drivers/STM32F3xx_HAL_Driver/Src/stm32f3xx_hal_flash_ex.c ****   *         (0xFFFFFFFF means that all the pages have been correctly erased)
 172:Drivers/STM32F3xx_HAL_Driver/Src/stm32f3xx_hal_flash_ex.c ****   *
 173:Drivers/STM32F3xx_HAL_Driver/Src/stm32f3xx_hal_flash_ex.c ****   * @retval HAL_StatusTypeDef HAL Status
 174:Drivers/STM32F3xx_HAL_Driver/Src/stm32f3xx_hal_flash_ex.c ****   */
 175:Drivers/STM32F3xx_HAL_Driver/Src/stm32f3xx_hal_flash_ex.c **** HAL_StatusTypeDef HAL_FLASHEx_Erase(FLASH_EraseInitTypeDef *pEraseInit, uint32_t *PageError)
 176:Drivers/STM32F3xx_HAL_Driver/Src/stm32f3xx_hal_flash_ex.c **** {
 177:Drivers/STM32F3xx_HAL_Driver/Src/stm32f3xx_hal_flash_ex.c ****   HAL_StatusTypeDef status = HAL_ERROR;
 178:Drivers/STM32F3xx_HAL_Driver/Src/stm32f3xx_hal_flash_ex.c ****   uint32_t address = 0U;
 179:Drivers/STM32F3xx_HAL_Driver/Src/stm32f3xx_hal_flash_ex.c **** 
 180:Drivers/STM32F3xx_HAL_Driver/Src/stm32f3xx_hal_flash_ex.c ****   /* Process Locked */
 181:Drivers/STM32F3xx_HAL_Driver/Src/stm32f3xx_hal_flash_ex.c ****   __HAL_LOCK(&pFlash);
 182:Drivers/STM32F3xx_HAL_Driver/Src/stm32f3xx_hal_flash_ex.c **** 
 183:Drivers/STM32F3xx_HAL_Driver/Src/stm32f3xx_hal_flash_ex.c ****   /* Check the parameters */
 184:Drivers/STM32F3xx_HAL_Driver/Src/stm32f3xx_hal_flash_ex.c ****   assert_param(IS_FLASH_TYPEERASE(pEraseInit->TypeErase));
 185:Drivers/STM32F3xx_HAL_Driver/Src/stm32f3xx_hal_flash_ex.c **** 
 186:Drivers/STM32F3xx_HAL_Driver/Src/stm32f3xx_hal_flash_ex.c ****   if (pEraseInit->TypeErase == FLASH_TYPEERASE_MASSERASE)
 187:Drivers/STM32F3xx_HAL_Driver/Src/stm32f3xx_hal_flash_ex.c ****   {
 188:Drivers/STM32F3xx_HAL_Driver/Src/stm32f3xx_hal_flash_ex.c ****       /* Mass Erase requested for Bank1 */
 189:Drivers/STM32F3xx_HAL_Driver/Src/stm32f3xx_hal_flash_ex.c ****       /* Wait for last operation to be completed */
 190:Drivers/STM32F3xx_HAL_Driver/Src/stm32f3xx_hal_flash_ex.c ****       if (FLASH_WaitForLastOperation((uint32_t)FLASH_TIMEOUT_VALUE) == HAL_OK)
 191:Drivers/STM32F3xx_HAL_Driver/Src/stm32f3xx_hal_flash_ex.c ****       {
 192:Drivers/STM32F3xx_HAL_Driver/Src/stm32f3xx_hal_flash_ex.c ****         /*Mass erase to be done*/
 193:Drivers/STM32F3xx_HAL_Driver/Src/stm32f3xx_hal_flash_ex.c ****         FLASH_MassErase();
 194:Drivers/STM32F3xx_HAL_Driver/Src/stm32f3xx_hal_flash_ex.c ****         
 195:Drivers/STM32F3xx_HAL_Driver/Src/stm32f3xx_hal_flash_ex.c ****         /* Wait for last operation to be completed */
 196:Drivers/STM32F3xx_HAL_Driver/Src/stm32f3xx_hal_flash_ex.c ****         status = FLASH_WaitForLastOperation((uint32_t)FLASH_TIMEOUT_VALUE);
 197:Drivers/STM32F3xx_HAL_Driver/Src/stm32f3xx_hal_flash_ex.c ****         
 198:Drivers/STM32F3xx_HAL_Driver/Src/stm32f3xx_hal_flash_ex.c ****         /* If the erase operation is completed, disable the MER Bit */
 199:Drivers/STM32F3xx_HAL_Driver/Src/stm32f3xx_hal_flash_ex.c ****         CLEAR_BIT(FLASH->CR, FLASH_CR_MER);
 200:Drivers/STM32F3xx_HAL_Driver/Src/stm32f3xx_hal_flash_ex.c ****       }
 201:Drivers/STM32F3xx_HAL_Driver/Src/stm32f3xx_hal_flash_ex.c ****   }
 202:Drivers/STM32F3xx_HAL_Driver/Src/stm32f3xx_hal_flash_ex.c ****   else
ARM GAS  /var/folders/md/lgcc8l7571l9vt9sx0g0zflw0000gn/T//ccWpNrmC.s 			page 5


 203:Drivers/STM32F3xx_HAL_Driver/Src/stm32f3xx_hal_flash_ex.c ****   {
 204:Drivers/STM32F3xx_HAL_Driver/Src/stm32f3xx_hal_flash_ex.c ****     /* Page Erase is requested */
 205:Drivers/STM32F3xx_HAL_Driver/Src/stm32f3xx_hal_flash_ex.c ****     /* Check the parameters */
 206:Drivers/STM32F3xx_HAL_Driver/Src/stm32f3xx_hal_flash_ex.c ****     assert_param(IS_FLASH_PROGRAM_ADDRESS(pEraseInit->PageAddress));
 207:Drivers/STM32F3xx_HAL_Driver/Src/stm32f3xx_hal_flash_ex.c ****     assert_param(IS_FLASH_NB_PAGES(pEraseInit->PageAddress, pEraseInit->NbPages));
 208:Drivers/STM32F3xx_HAL_Driver/Src/stm32f3xx_hal_flash_ex.c ****     
 209:Drivers/STM32F3xx_HAL_Driver/Src/stm32f3xx_hal_flash_ex.c ****       /* Page Erase requested on address located on bank1 */
 210:Drivers/STM32F3xx_HAL_Driver/Src/stm32f3xx_hal_flash_ex.c ****       /* Wait for last operation to be completed */
 211:Drivers/STM32F3xx_HAL_Driver/Src/stm32f3xx_hal_flash_ex.c ****       if (FLASH_WaitForLastOperation((uint32_t)FLASH_TIMEOUT_VALUE) == HAL_OK)
 212:Drivers/STM32F3xx_HAL_Driver/Src/stm32f3xx_hal_flash_ex.c ****       {
 213:Drivers/STM32F3xx_HAL_Driver/Src/stm32f3xx_hal_flash_ex.c ****         /*Initialization of PageError variable*/
 214:Drivers/STM32F3xx_HAL_Driver/Src/stm32f3xx_hal_flash_ex.c ****         *PageError = 0xFFFFFFFFU;
 215:Drivers/STM32F3xx_HAL_Driver/Src/stm32f3xx_hal_flash_ex.c ****         
 216:Drivers/STM32F3xx_HAL_Driver/Src/stm32f3xx_hal_flash_ex.c ****         /* Erase page by page to be done*/
 217:Drivers/STM32F3xx_HAL_Driver/Src/stm32f3xx_hal_flash_ex.c ****         for(address = pEraseInit->PageAddress;
 218:Drivers/STM32F3xx_HAL_Driver/Src/stm32f3xx_hal_flash_ex.c ****             address < ((pEraseInit->NbPages * FLASH_PAGE_SIZE) + pEraseInit->PageAddress);
 219:Drivers/STM32F3xx_HAL_Driver/Src/stm32f3xx_hal_flash_ex.c ****             address += FLASH_PAGE_SIZE)
 220:Drivers/STM32F3xx_HAL_Driver/Src/stm32f3xx_hal_flash_ex.c ****         {
 221:Drivers/STM32F3xx_HAL_Driver/Src/stm32f3xx_hal_flash_ex.c ****           FLASH_PageErase(address);
 222:Drivers/STM32F3xx_HAL_Driver/Src/stm32f3xx_hal_flash_ex.c ****           
 223:Drivers/STM32F3xx_HAL_Driver/Src/stm32f3xx_hal_flash_ex.c ****           /* Wait for last operation to be completed */
 224:Drivers/STM32F3xx_HAL_Driver/Src/stm32f3xx_hal_flash_ex.c ****           status = FLASH_WaitForLastOperation((uint32_t)FLASH_TIMEOUT_VALUE);
 225:Drivers/STM32F3xx_HAL_Driver/Src/stm32f3xx_hal_flash_ex.c ****           
 226:Drivers/STM32F3xx_HAL_Driver/Src/stm32f3xx_hal_flash_ex.c ****           /* If the erase operation is completed, disable the PER Bit */
 227:Drivers/STM32F3xx_HAL_Driver/Src/stm32f3xx_hal_flash_ex.c ****           CLEAR_BIT(FLASH->CR, FLASH_CR_PER);
 228:Drivers/STM32F3xx_HAL_Driver/Src/stm32f3xx_hal_flash_ex.c ****           
 229:Drivers/STM32F3xx_HAL_Driver/Src/stm32f3xx_hal_flash_ex.c ****           if (status != HAL_OK)
 230:Drivers/STM32F3xx_HAL_Driver/Src/stm32f3xx_hal_flash_ex.c ****           {
 231:Drivers/STM32F3xx_HAL_Driver/Src/stm32f3xx_hal_flash_ex.c ****             /* In case of error, stop erase procedure and return the faulty address */
 232:Drivers/STM32F3xx_HAL_Driver/Src/stm32f3xx_hal_flash_ex.c ****             *PageError = address;
 233:Drivers/STM32F3xx_HAL_Driver/Src/stm32f3xx_hal_flash_ex.c ****             break;
 234:Drivers/STM32F3xx_HAL_Driver/Src/stm32f3xx_hal_flash_ex.c ****           }
 235:Drivers/STM32F3xx_HAL_Driver/Src/stm32f3xx_hal_flash_ex.c ****         }
 236:Drivers/STM32F3xx_HAL_Driver/Src/stm32f3xx_hal_flash_ex.c ****       }
 237:Drivers/STM32F3xx_HAL_Driver/Src/stm32f3xx_hal_flash_ex.c ****   }
 238:Drivers/STM32F3xx_HAL_Driver/Src/stm32f3xx_hal_flash_ex.c **** 
 239:Drivers/STM32F3xx_HAL_Driver/Src/stm32f3xx_hal_flash_ex.c ****   /* Process Unlocked */
 240:Drivers/STM32F3xx_HAL_Driver/Src/stm32f3xx_hal_flash_ex.c ****   __HAL_UNLOCK(&pFlash);
 241:Drivers/STM32F3xx_HAL_Driver/Src/stm32f3xx_hal_flash_ex.c **** 
 242:Drivers/STM32F3xx_HAL_Driver/Src/stm32f3xx_hal_flash_ex.c ****   return status;
 243:Drivers/STM32F3xx_HAL_Driver/Src/stm32f3xx_hal_flash_ex.c **** }
 244:Drivers/STM32F3xx_HAL_Driver/Src/stm32f3xx_hal_flash_ex.c **** 
 245:Drivers/STM32F3xx_HAL_Driver/Src/stm32f3xx_hal_flash_ex.c **** /**
 246:Drivers/STM32F3xx_HAL_Driver/Src/stm32f3xx_hal_flash_ex.c ****   * @brief  Perform a mass erase or erase the specified FLASH memory pages with interrupt enabled
 247:Drivers/STM32F3xx_HAL_Driver/Src/stm32f3xx_hal_flash_ex.c ****   * @note   To correctly run this function, the @ref HAL_FLASH_Unlock() function
 248:Drivers/STM32F3xx_HAL_Driver/Src/stm32f3xx_hal_flash_ex.c ****   *         must be called before.
 249:Drivers/STM32F3xx_HAL_Driver/Src/stm32f3xx_hal_flash_ex.c ****   *         Call the @ref HAL_FLASH_Lock() to disable the flash memory access 
 250:Drivers/STM32F3xx_HAL_Driver/Src/stm32f3xx_hal_flash_ex.c ****   *         (recommended to protect the FLASH memory against possible unwanted operation)
 251:Drivers/STM32F3xx_HAL_Driver/Src/stm32f3xx_hal_flash_ex.c ****   * @param  pEraseInit pointer to an FLASH_EraseInitTypeDef structure that
 252:Drivers/STM32F3xx_HAL_Driver/Src/stm32f3xx_hal_flash_ex.c ****   *         contains the configuration information for the erasing.
 253:Drivers/STM32F3xx_HAL_Driver/Src/stm32f3xx_hal_flash_ex.c ****   *
 254:Drivers/STM32F3xx_HAL_Driver/Src/stm32f3xx_hal_flash_ex.c ****   * @retval HAL_StatusTypeDef HAL Status
 255:Drivers/STM32F3xx_HAL_Driver/Src/stm32f3xx_hal_flash_ex.c ****   */
 256:Drivers/STM32F3xx_HAL_Driver/Src/stm32f3xx_hal_flash_ex.c **** HAL_StatusTypeDef HAL_FLASHEx_Erase_IT(FLASH_EraseInitTypeDef *pEraseInit)
 257:Drivers/STM32F3xx_HAL_Driver/Src/stm32f3xx_hal_flash_ex.c **** {
 258:Drivers/STM32F3xx_HAL_Driver/Src/stm32f3xx_hal_flash_ex.c ****   HAL_StatusTypeDef status = HAL_OK;
 259:Drivers/STM32F3xx_HAL_Driver/Src/stm32f3xx_hal_flash_ex.c **** 
ARM GAS  /var/folders/md/lgcc8l7571l9vt9sx0g0zflw0000gn/T//ccWpNrmC.s 			page 6


 260:Drivers/STM32F3xx_HAL_Driver/Src/stm32f3xx_hal_flash_ex.c ****   /* Process Locked */
 261:Drivers/STM32F3xx_HAL_Driver/Src/stm32f3xx_hal_flash_ex.c ****   __HAL_LOCK(&pFlash);
 262:Drivers/STM32F3xx_HAL_Driver/Src/stm32f3xx_hal_flash_ex.c **** 
 263:Drivers/STM32F3xx_HAL_Driver/Src/stm32f3xx_hal_flash_ex.c ****   /* If procedure already ongoing, reject the next one */
 264:Drivers/STM32F3xx_HAL_Driver/Src/stm32f3xx_hal_flash_ex.c ****   if (pFlash.ProcedureOnGoing != FLASH_PROC_NONE)
 265:Drivers/STM32F3xx_HAL_Driver/Src/stm32f3xx_hal_flash_ex.c ****   {
 266:Drivers/STM32F3xx_HAL_Driver/Src/stm32f3xx_hal_flash_ex.c ****     return HAL_ERROR;
 267:Drivers/STM32F3xx_HAL_Driver/Src/stm32f3xx_hal_flash_ex.c ****   }
 268:Drivers/STM32F3xx_HAL_Driver/Src/stm32f3xx_hal_flash_ex.c ****   
 269:Drivers/STM32F3xx_HAL_Driver/Src/stm32f3xx_hal_flash_ex.c ****   /* Check the parameters */
 270:Drivers/STM32F3xx_HAL_Driver/Src/stm32f3xx_hal_flash_ex.c ****   assert_param(IS_FLASH_TYPEERASE(pEraseInit->TypeErase));
 271:Drivers/STM32F3xx_HAL_Driver/Src/stm32f3xx_hal_flash_ex.c **** 
 272:Drivers/STM32F3xx_HAL_Driver/Src/stm32f3xx_hal_flash_ex.c ****   /* Enable End of FLASH Operation and Error source interrupts */
 273:Drivers/STM32F3xx_HAL_Driver/Src/stm32f3xx_hal_flash_ex.c ****   __HAL_FLASH_ENABLE_IT(FLASH_IT_EOP | FLASH_IT_ERR);
 274:Drivers/STM32F3xx_HAL_Driver/Src/stm32f3xx_hal_flash_ex.c **** 
 275:Drivers/STM32F3xx_HAL_Driver/Src/stm32f3xx_hal_flash_ex.c ****   if (pEraseInit->TypeErase == FLASH_TYPEERASE_MASSERASE)
 276:Drivers/STM32F3xx_HAL_Driver/Src/stm32f3xx_hal_flash_ex.c ****   {
 277:Drivers/STM32F3xx_HAL_Driver/Src/stm32f3xx_hal_flash_ex.c ****     /*Mass erase to be done*/
 278:Drivers/STM32F3xx_HAL_Driver/Src/stm32f3xx_hal_flash_ex.c ****     pFlash.ProcedureOnGoing = FLASH_PROC_MASSERASE;
 279:Drivers/STM32F3xx_HAL_Driver/Src/stm32f3xx_hal_flash_ex.c ****         FLASH_MassErase();
 280:Drivers/STM32F3xx_HAL_Driver/Src/stm32f3xx_hal_flash_ex.c ****   }
 281:Drivers/STM32F3xx_HAL_Driver/Src/stm32f3xx_hal_flash_ex.c ****   else
 282:Drivers/STM32F3xx_HAL_Driver/Src/stm32f3xx_hal_flash_ex.c ****   {
 283:Drivers/STM32F3xx_HAL_Driver/Src/stm32f3xx_hal_flash_ex.c ****     /* Erase by page to be done*/
 284:Drivers/STM32F3xx_HAL_Driver/Src/stm32f3xx_hal_flash_ex.c **** 
 285:Drivers/STM32F3xx_HAL_Driver/Src/stm32f3xx_hal_flash_ex.c ****     /* Check the parameters */
 286:Drivers/STM32F3xx_HAL_Driver/Src/stm32f3xx_hal_flash_ex.c ****     assert_param(IS_FLASH_PROGRAM_ADDRESS(pEraseInit->PageAddress));
 287:Drivers/STM32F3xx_HAL_Driver/Src/stm32f3xx_hal_flash_ex.c ****     assert_param(IS_FLASH_NB_PAGES(pEraseInit->PageAddress, pEraseInit->NbPages));
 288:Drivers/STM32F3xx_HAL_Driver/Src/stm32f3xx_hal_flash_ex.c **** 
 289:Drivers/STM32F3xx_HAL_Driver/Src/stm32f3xx_hal_flash_ex.c ****     pFlash.ProcedureOnGoing = FLASH_PROC_PAGEERASE;
 290:Drivers/STM32F3xx_HAL_Driver/Src/stm32f3xx_hal_flash_ex.c ****     pFlash.DataRemaining = pEraseInit->NbPages;
 291:Drivers/STM32F3xx_HAL_Driver/Src/stm32f3xx_hal_flash_ex.c ****     pFlash.Address = pEraseInit->PageAddress;
 292:Drivers/STM32F3xx_HAL_Driver/Src/stm32f3xx_hal_flash_ex.c **** 
 293:Drivers/STM32F3xx_HAL_Driver/Src/stm32f3xx_hal_flash_ex.c ****     /*Erase 1st page and wait for IT*/
 294:Drivers/STM32F3xx_HAL_Driver/Src/stm32f3xx_hal_flash_ex.c ****     FLASH_PageErase(pEraseInit->PageAddress);
 295:Drivers/STM32F3xx_HAL_Driver/Src/stm32f3xx_hal_flash_ex.c ****   }
 296:Drivers/STM32F3xx_HAL_Driver/Src/stm32f3xx_hal_flash_ex.c **** 
 297:Drivers/STM32F3xx_HAL_Driver/Src/stm32f3xx_hal_flash_ex.c ****   return status;
 298:Drivers/STM32F3xx_HAL_Driver/Src/stm32f3xx_hal_flash_ex.c **** }
 299:Drivers/STM32F3xx_HAL_Driver/Src/stm32f3xx_hal_flash_ex.c **** 
 300:Drivers/STM32F3xx_HAL_Driver/Src/stm32f3xx_hal_flash_ex.c **** /**
 301:Drivers/STM32F3xx_HAL_Driver/Src/stm32f3xx_hal_flash_ex.c ****   * @}
 302:Drivers/STM32F3xx_HAL_Driver/Src/stm32f3xx_hal_flash_ex.c ****   */
 303:Drivers/STM32F3xx_HAL_Driver/Src/stm32f3xx_hal_flash_ex.c **** 
 304:Drivers/STM32F3xx_HAL_Driver/Src/stm32f3xx_hal_flash_ex.c **** /** @defgroup FLASHEx_Exported_Functions_Group2 Option Bytes Programming functions
 305:Drivers/STM32F3xx_HAL_Driver/Src/stm32f3xx_hal_flash_ex.c ****  *  @brief   Option Bytes Programming functions
 306:Drivers/STM32F3xx_HAL_Driver/Src/stm32f3xx_hal_flash_ex.c ****   *
 307:Drivers/STM32F3xx_HAL_Driver/Src/stm32f3xx_hal_flash_ex.c **** @verbatim   
 308:Drivers/STM32F3xx_HAL_Driver/Src/stm32f3xx_hal_flash_ex.c ****   ==============================================================================
 309:Drivers/STM32F3xx_HAL_Driver/Src/stm32f3xx_hal_flash_ex.c ****                 ##### Option Bytes Programming functions ##### 
 310:Drivers/STM32F3xx_HAL_Driver/Src/stm32f3xx_hal_flash_ex.c ****   ==============================================================================  
 311:Drivers/STM32F3xx_HAL_Driver/Src/stm32f3xx_hal_flash_ex.c ****     [..]
 312:Drivers/STM32F3xx_HAL_Driver/Src/stm32f3xx_hal_flash_ex.c ****     This subsection provides a set of functions allowing to control the FLASH 
 313:Drivers/STM32F3xx_HAL_Driver/Src/stm32f3xx_hal_flash_ex.c ****     option bytes operations.
 314:Drivers/STM32F3xx_HAL_Driver/Src/stm32f3xx_hal_flash_ex.c **** 
 315:Drivers/STM32F3xx_HAL_Driver/Src/stm32f3xx_hal_flash_ex.c **** @endverbatim
 316:Drivers/STM32F3xx_HAL_Driver/Src/stm32f3xx_hal_flash_ex.c ****   * @{
ARM GAS  /var/folders/md/lgcc8l7571l9vt9sx0g0zflw0000gn/T//ccWpNrmC.s 			page 7


 317:Drivers/STM32F3xx_HAL_Driver/Src/stm32f3xx_hal_flash_ex.c ****   */
 318:Drivers/STM32F3xx_HAL_Driver/Src/stm32f3xx_hal_flash_ex.c **** 
 319:Drivers/STM32F3xx_HAL_Driver/Src/stm32f3xx_hal_flash_ex.c **** /**
 320:Drivers/STM32F3xx_HAL_Driver/Src/stm32f3xx_hal_flash_ex.c ****   * @brief  Erases the FLASH option bytes.
 321:Drivers/STM32F3xx_HAL_Driver/Src/stm32f3xx_hal_flash_ex.c ****   * @note   This functions erases all option bytes except the Read protection (RDP).
 322:Drivers/STM32F3xx_HAL_Driver/Src/stm32f3xx_hal_flash_ex.c ****   *         The function @ref HAL_FLASH_Unlock() should be called before to unlock the FLASH interf
 323:Drivers/STM32F3xx_HAL_Driver/Src/stm32f3xx_hal_flash_ex.c ****   *         The function @ref HAL_FLASH_OB_Unlock() should be called before to unlock the options b
 324:Drivers/STM32F3xx_HAL_Driver/Src/stm32f3xx_hal_flash_ex.c ****   *         The function @ref HAL_FLASH_OB_Launch() should be called after to force the reload of t
 325:Drivers/STM32F3xx_HAL_Driver/Src/stm32f3xx_hal_flash_ex.c ****   *         (system reset will occur)
 326:Drivers/STM32F3xx_HAL_Driver/Src/stm32f3xx_hal_flash_ex.c ****   * @retval HAL status
 327:Drivers/STM32F3xx_HAL_Driver/Src/stm32f3xx_hal_flash_ex.c ****   */
 328:Drivers/STM32F3xx_HAL_Driver/Src/stm32f3xx_hal_flash_ex.c **** 
 329:Drivers/STM32F3xx_HAL_Driver/Src/stm32f3xx_hal_flash_ex.c **** HAL_StatusTypeDef HAL_FLASHEx_OBErase(void)
 330:Drivers/STM32F3xx_HAL_Driver/Src/stm32f3xx_hal_flash_ex.c **** {
 331:Drivers/STM32F3xx_HAL_Driver/Src/stm32f3xx_hal_flash_ex.c ****   uint8_t rdptmp = OB_RDP_LEVEL_0;
 332:Drivers/STM32F3xx_HAL_Driver/Src/stm32f3xx_hal_flash_ex.c ****   HAL_StatusTypeDef status = HAL_ERROR;
 333:Drivers/STM32F3xx_HAL_Driver/Src/stm32f3xx_hal_flash_ex.c **** 
 334:Drivers/STM32F3xx_HAL_Driver/Src/stm32f3xx_hal_flash_ex.c ****   /* Get the actual read protection Option Byte value */
 335:Drivers/STM32F3xx_HAL_Driver/Src/stm32f3xx_hal_flash_ex.c ****   rdptmp = FLASH_OB_GetRDP();
 336:Drivers/STM32F3xx_HAL_Driver/Src/stm32f3xx_hal_flash_ex.c **** 
 337:Drivers/STM32F3xx_HAL_Driver/Src/stm32f3xx_hal_flash_ex.c ****   /* Wait for last operation to be completed */
 338:Drivers/STM32F3xx_HAL_Driver/Src/stm32f3xx_hal_flash_ex.c ****   status = FLASH_WaitForLastOperation((uint32_t)FLASH_TIMEOUT_VALUE);
 339:Drivers/STM32F3xx_HAL_Driver/Src/stm32f3xx_hal_flash_ex.c **** 
 340:Drivers/STM32F3xx_HAL_Driver/Src/stm32f3xx_hal_flash_ex.c ****   if(status == HAL_OK)
 341:Drivers/STM32F3xx_HAL_Driver/Src/stm32f3xx_hal_flash_ex.c ****   {
 342:Drivers/STM32F3xx_HAL_Driver/Src/stm32f3xx_hal_flash_ex.c ****     /* Clean the error context */
 343:Drivers/STM32F3xx_HAL_Driver/Src/stm32f3xx_hal_flash_ex.c ****     pFlash.ErrorCode = HAL_FLASH_ERROR_NONE;
 344:Drivers/STM32F3xx_HAL_Driver/Src/stm32f3xx_hal_flash_ex.c **** 
 345:Drivers/STM32F3xx_HAL_Driver/Src/stm32f3xx_hal_flash_ex.c ****     /* If the previous operation is completed, proceed to erase the option bytes */
 346:Drivers/STM32F3xx_HAL_Driver/Src/stm32f3xx_hal_flash_ex.c ****     SET_BIT(FLASH->CR, FLASH_CR_OPTER);
 347:Drivers/STM32F3xx_HAL_Driver/Src/stm32f3xx_hal_flash_ex.c ****     SET_BIT(FLASH->CR, FLASH_CR_STRT);
 348:Drivers/STM32F3xx_HAL_Driver/Src/stm32f3xx_hal_flash_ex.c **** 
 349:Drivers/STM32F3xx_HAL_Driver/Src/stm32f3xx_hal_flash_ex.c ****     /* Wait for last operation to be completed */
 350:Drivers/STM32F3xx_HAL_Driver/Src/stm32f3xx_hal_flash_ex.c ****     status = FLASH_WaitForLastOperation((uint32_t)FLASH_TIMEOUT_VALUE);
 351:Drivers/STM32F3xx_HAL_Driver/Src/stm32f3xx_hal_flash_ex.c **** 
 352:Drivers/STM32F3xx_HAL_Driver/Src/stm32f3xx_hal_flash_ex.c ****     /* If the erase operation is completed, disable the OPTER Bit */
 353:Drivers/STM32F3xx_HAL_Driver/Src/stm32f3xx_hal_flash_ex.c ****     CLEAR_BIT(FLASH->CR, FLASH_CR_OPTER);
 354:Drivers/STM32F3xx_HAL_Driver/Src/stm32f3xx_hal_flash_ex.c **** 
 355:Drivers/STM32F3xx_HAL_Driver/Src/stm32f3xx_hal_flash_ex.c ****     if(status == HAL_OK)
 356:Drivers/STM32F3xx_HAL_Driver/Src/stm32f3xx_hal_flash_ex.c ****     {
 357:Drivers/STM32F3xx_HAL_Driver/Src/stm32f3xx_hal_flash_ex.c ****       /* Restore the last read protection Option Byte value */
 358:Drivers/STM32F3xx_HAL_Driver/Src/stm32f3xx_hal_flash_ex.c ****       status = FLASH_OB_RDP_LevelConfig(rdptmp);
 359:Drivers/STM32F3xx_HAL_Driver/Src/stm32f3xx_hal_flash_ex.c ****     }
 360:Drivers/STM32F3xx_HAL_Driver/Src/stm32f3xx_hal_flash_ex.c ****   }
 361:Drivers/STM32F3xx_HAL_Driver/Src/stm32f3xx_hal_flash_ex.c **** 
 362:Drivers/STM32F3xx_HAL_Driver/Src/stm32f3xx_hal_flash_ex.c ****   /* Return the erase status */
 363:Drivers/STM32F3xx_HAL_Driver/Src/stm32f3xx_hal_flash_ex.c ****   return status;
 364:Drivers/STM32F3xx_HAL_Driver/Src/stm32f3xx_hal_flash_ex.c **** }
 365:Drivers/STM32F3xx_HAL_Driver/Src/stm32f3xx_hal_flash_ex.c **** 
 366:Drivers/STM32F3xx_HAL_Driver/Src/stm32f3xx_hal_flash_ex.c **** /**
 367:Drivers/STM32F3xx_HAL_Driver/Src/stm32f3xx_hal_flash_ex.c ****   * @brief  Program option bytes
 368:Drivers/STM32F3xx_HAL_Driver/Src/stm32f3xx_hal_flash_ex.c ****   * @note   The function @ref HAL_FLASH_Unlock() should be called before to unlock the FLASH interf
 369:Drivers/STM32F3xx_HAL_Driver/Src/stm32f3xx_hal_flash_ex.c ****   *         The function @ref HAL_FLASH_OB_Unlock() should be called before to unlock the options b
 370:Drivers/STM32F3xx_HAL_Driver/Src/stm32f3xx_hal_flash_ex.c ****   *         The function @ref HAL_FLASH_OB_Launch() should be called after to force the reload of t
 371:Drivers/STM32F3xx_HAL_Driver/Src/stm32f3xx_hal_flash_ex.c ****   *         (system reset will occur)
 372:Drivers/STM32F3xx_HAL_Driver/Src/stm32f3xx_hal_flash_ex.c ****   *
 373:Drivers/STM32F3xx_HAL_Driver/Src/stm32f3xx_hal_flash_ex.c ****   * @param  pOBInit pointer to an FLASH_OBInitStruct structure that
ARM GAS  /var/folders/md/lgcc8l7571l9vt9sx0g0zflw0000gn/T//ccWpNrmC.s 			page 8


 374:Drivers/STM32F3xx_HAL_Driver/Src/stm32f3xx_hal_flash_ex.c ****   *         contains the configuration information for the programming.
 375:Drivers/STM32F3xx_HAL_Driver/Src/stm32f3xx_hal_flash_ex.c ****   *
 376:Drivers/STM32F3xx_HAL_Driver/Src/stm32f3xx_hal_flash_ex.c ****   * @retval HAL_StatusTypeDef HAL Status
 377:Drivers/STM32F3xx_HAL_Driver/Src/stm32f3xx_hal_flash_ex.c ****   */
 378:Drivers/STM32F3xx_HAL_Driver/Src/stm32f3xx_hal_flash_ex.c **** HAL_StatusTypeDef HAL_FLASHEx_OBProgram(FLASH_OBProgramInitTypeDef *pOBInit)
 379:Drivers/STM32F3xx_HAL_Driver/Src/stm32f3xx_hal_flash_ex.c **** {
 380:Drivers/STM32F3xx_HAL_Driver/Src/stm32f3xx_hal_flash_ex.c ****   HAL_StatusTypeDef status = HAL_ERROR;
 381:Drivers/STM32F3xx_HAL_Driver/Src/stm32f3xx_hal_flash_ex.c **** 
 382:Drivers/STM32F3xx_HAL_Driver/Src/stm32f3xx_hal_flash_ex.c ****   /* Process Locked */
 383:Drivers/STM32F3xx_HAL_Driver/Src/stm32f3xx_hal_flash_ex.c ****   __HAL_LOCK(&pFlash);
 384:Drivers/STM32F3xx_HAL_Driver/Src/stm32f3xx_hal_flash_ex.c **** 
 385:Drivers/STM32F3xx_HAL_Driver/Src/stm32f3xx_hal_flash_ex.c ****   /* Check the parameters */
 386:Drivers/STM32F3xx_HAL_Driver/Src/stm32f3xx_hal_flash_ex.c ****   assert_param(IS_OPTIONBYTE(pOBInit->OptionType));
 387:Drivers/STM32F3xx_HAL_Driver/Src/stm32f3xx_hal_flash_ex.c **** 
 388:Drivers/STM32F3xx_HAL_Driver/Src/stm32f3xx_hal_flash_ex.c ****   /* Write protection configuration */
 389:Drivers/STM32F3xx_HAL_Driver/Src/stm32f3xx_hal_flash_ex.c ****   if((pOBInit->OptionType & OPTIONBYTE_WRP) == OPTIONBYTE_WRP)
 390:Drivers/STM32F3xx_HAL_Driver/Src/stm32f3xx_hal_flash_ex.c ****   {
 391:Drivers/STM32F3xx_HAL_Driver/Src/stm32f3xx_hal_flash_ex.c ****     assert_param(IS_WRPSTATE(pOBInit->WRPState));
 392:Drivers/STM32F3xx_HAL_Driver/Src/stm32f3xx_hal_flash_ex.c ****     if (pOBInit->WRPState == OB_WRPSTATE_ENABLE)
 393:Drivers/STM32F3xx_HAL_Driver/Src/stm32f3xx_hal_flash_ex.c ****     {
 394:Drivers/STM32F3xx_HAL_Driver/Src/stm32f3xx_hal_flash_ex.c ****       /* Enable of Write protection on the selected page */
 395:Drivers/STM32F3xx_HAL_Driver/Src/stm32f3xx_hal_flash_ex.c ****       status = FLASH_OB_EnableWRP(pOBInit->WRPPage);
 396:Drivers/STM32F3xx_HAL_Driver/Src/stm32f3xx_hal_flash_ex.c ****     }
 397:Drivers/STM32F3xx_HAL_Driver/Src/stm32f3xx_hal_flash_ex.c ****     else
 398:Drivers/STM32F3xx_HAL_Driver/Src/stm32f3xx_hal_flash_ex.c ****     {
 399:Drivers/STM32F3xx_HAL_Driver/Src/stm32f3xx_hal_flash_ex.c ****       /* Disable of Write protection on the selected page */
 400:Drivers/STM32F3xx_HAL_Driver/Src/stm32f3xx_hal_flash_ex.c ****       status = FLASH_OB_DisableWRP(pOBInit->WRPPage);
 401:Drivers/STM32F3xx_HAL_Driver/Src/stm32f3xx_hal_flash_ex.c ****     }
 402:Drivers/STM32F3xx_HAL_Driver/Src/stm32f3xx_hal_flash_ex.c ****     if (status != HAL_OK)
 403:Drivers/STM32F3xx_HAL_Driver/Src/stm32f3xx_hal_flash_ex.c ****     {
 404:Drivers/STM32F3xx_HAL_Driver/Src/stm32f3xx_hal_flash_ex.c ****       /* Process Unlocked */
 405:Drivers/STM32F3xx_HAL_Driver/Src/stm32f3xx_hal_flash_ex.c ****       __HAL_UNLOCK(&pFlash);
 406:Drivers/STM32F3xx_HAL_Driver/Src/stm32f3xx_hal_flash_ex.c ****       return status;
 407:Drivers/STM32F3xx_HAL_Driver/Src/stm32f3xx_hal_flash_ex.c ****     }
 408:Drivers/STM32F3xx_HAL_Driver/Src/stm32f3xx_hal_flash_ex.c ****   }
 409:Drivers/STM32F3xx_HAL_Driver/Src/stm32f3xx_hal_flash_ex.c **** 
 410:Drivers/STM32F3xx_HAL_Driver/Src/stm32f3xx_hal_flash_ex.c ****   /* Read protection configuration */
 411:Drivers/STM32F3xx_HAL_Driver/Src/stm32f3xx_hal_flash_ex.c ****   if((pOBInit->OptionType & OPTIONBYTE_RDP) == OPTIONBYTE_RDP)
 412:Drivers/STM32F3xx_HAL_Driver/Src/stm32f3xx_hal_flash_ex.c ****   {
 413:Drivers/STM32F3xx_HAL_Driver/Src/stm32f3xx_hal_flash_ex.c ****     status = FLASH_OB_RDP_LevelConfig(pOBInit->RDPLevel);
 414:Drivers/STM32F3xx_HAL_Driver/Src/stm32f3xx_hal_flash_ex.c ****     if (status != HAL_OK)
 415:Drivers/STM32F3xx_HAL_Driver/Src/stm32f3xx_hal_flash_ex.c ****     {
 416:Drivers/STM32F3xx_HAL_Driver/Src/stm32f3xx_hal_flash_ex.c ****       /* Process Unlocked */
 417:Drivers/STM32F3xx_HAL_Driver/Src/stm32f3xx_hal_flash_ex.c ****       __HAL_UNLOCK(&pFlash);
 418:Drivers/STM32F3xx_HAL_Driver/Src/stm32f3xx_hal_flash_ex.c ****       return status;
 419:Drivers/STM32F3xx_HAL_Driver/Src/stm32f3xx_hal_flash_ex.c ****     }
 420:Drivers/STM32F3xx_HAL_Driver/Src/stm32f3xx_hal_flash_ex.c ****   }
 421:Drivers/STM32F3xx_HAL_Driver/Src/stm32f3xx_hal_flash_ex.c **** 
 422:Drivers/STM32F3xx_HAL_Driver/Src/stm32f3xx_hal_flash_ex.c ****   /* USER configuration */
 423:Drivers/STM32F3xx_HAL_Driver/Src/stm32f3xx_hal_flash_ex.c ****   if((pOBInit->OptionType & OPTIONBYTE_USER) == OPTIONBYTE_USER)
 424:Drivers/STM32F3xx_HAL_Driver/Src/stm32f3xx_hal_flash_ex.c ****   {
 425:Drivers/STM32F3xx_HAL_Driver/Src/stm32f3xx_hal_flash_ex.c ****     status = FLASH_OB_UserConfig(pOBInit->USERConfig);
 426:Drivers/STM32F3xx_HAL_Driver/Src/stm32f3xx_hal_flash_ex.c ****     if (status != HAL_OK)
 427:Drivers/STM32F3xx_HAL_Driver/Src/stm32f3xx_hal_flash_ex.c ****     {
 428:Drivers/STM32F3xx_HAL_Driver/Src/stm32f3xx_hal_flash_ex.c ****       /* Process Unlocked */
 429:Drivers/STM32F3xx_HAL_Driver/Src/stm32f3xx_hal_flash_ex.c ****       __HAL_UNLOCK(&pFlash);
 430:Drivers/STM32F3xx_HAL_Driver/Src/stm32f3xx_hal_flash_ex.c ****       return status;
ARM GAS  /var/folders/md/lgcc8l7571l9vt9sx0g0zflw0000gn/T//ccWpNrmC.s 			page 9


 431:Drivers/STM32F3xx_HAL_Driver/Src/stm32f3xx_hal_flash_ex.c ****     }
 432:Drivers/STM32F3xx_HAL_Driver/Src/stm32f3xx_hal_flash_ex.c ****   }
 433:Drivers/STM32F3xx_HAL_Driver/Src/stm32f3xx_hal_flash_ex.c **** 
 434:Drivers/STM32F3xx_HAL_Driver/Src/stm32f3xx_hal_flash_ex.c ****   /* DATA configuration*/
 435:Drivers/STM32F3xx_HAL_Driver/Src/stm32f3xx_hal_flash_ex.c ****   if((pOBInit->OptionType & OPTIONBYTE_DATA) == OPTIONBYTE_DATA)
 436:Drivers/STM32F3xx_HAL_Driver/Src/stm32f3xx_hal_flash_ex.c ****   {
 437:Drivers/STM32F3xx_HAL_Driver/Src/stm32f3xx_hal_flash_ex.c ****     status = FLASH_OB_ProgramData(pOBInit->DATAAddress, pOBInit->DATAData);
 438:Drivers/STM32F3xx_HAL_Driver/Src/stm32f3xx_hal_flash_ex.c ****     if (status != HAL_OK)
 439:Drivers/STM32F3xx_HAL_Driver/Src/stm32f3xx_hal_flash_ex.c ****     {
 440:Drivers/STM32F3xx_HAL_Driver/Src/stm32f3xx_hal_flash_ex.c ****       /* Process Unlocked */
 441:Drivers/STM32F3xx_HAL_Driver/Src/stm32f3xx_hal_flash_ex.c ****       __HAL_UNLOCK(&pFlash);
 442:Drivers/STM32F3xx_HAL_Driver/Src/stm32f3xx_hal_flash_ex.c ****       return status;
 443:Drivers/STM32F3xx_HAL_Driver/Src/stm32f3xx_hal_flash_ex.c ****     }
 444:Drivers/STM32F3xx_HAL_Driver/Src/stm32f3xx_hal_flash_ex.c ****   }
 445:Drivers/STM32F3xx_HAL_Driver/Src/stm32f3xx_hal_flash_ex.c **** 
 446:Drivers/STM32F3xx_HAL_Driver/Src/stm32f3xx_hal_flash_ex.c ****   /* Process Unlocked */
 447:Drivers/STM32F3xx_HAL_Driver/Src/stm32f3xx_hal_flash_ex.c ****   __HAL_UNLOCK(&pFlash);
 448:Drivers/STM32F3xx_HAL_Driver/Src/stm32f3xx_hal_flash_ex.c **** 
 449:Drivers/STM32F3xx_HAL_Driver/Src/stm32f3xx_hal_flash_ex.c ****   return status;
 450:Drivers/STM32F3xx_HAL_Driver/Src/stm32f3xx_hal_flash_ex.c **** }
 451:Drivers/STM32F3xx_HAL_Driver/Src/stm32f3xx_hal_flash_ex.c **** 
 452:Drivers/STM32F3xx_HAL_Driver/Src/stm32f3xx_hal_flash_ex.c **** /**
 453:Drivers/STM32F3xx_HAL_Driver/Src/stm32f3xx_hal_flash_ex.c ****   * @brief  Get the Option byte configuration
 454:Drivers/STM32F3xx_HAL_Driver/Src/stm32f3xx_hal_flash_ex.c ****   * @param  pOBInit pointer to an FLASH_OBInitStruct structure that
 455:Drivers/STM32F3xx_HAL_Driver/Src/stm32f3xx_hal_flash_ex.c ****   *         contains the configuration information for the programming.
 456:Drivers/STM32F3xx_HAL_Driver/Src/stm32f3xx_hal_flash_ex.c ****   *
 457:Drivers/STM32F3xx_HAL_Driver/Src/stm32f3xx_hal_flash_ex.c ****   * @retval None
 458:Drivers/STM32F3xx_HAL_Driver/Src/stm32f3xx_hal_flash_ex.c ****   */
 459:Drivers/STM32F3xx_HAL_Driver/Src/stm32f3xx_hal_flash_ex.c **** void HAL_FLASHEx_OBGetConfig(FLASH_OBProgramInitTypeDef *pOBInit)
 460:Drivers/STM32F3xx_HAL_Driver/Src/stm32f3xx_hal_flash_ex.c **** {
 461:Drivers/STM32F3xx_HAL_Driver/Src/stm32f3xx_hal_flash_ex.c ****   pOBInit->OptionType = OPTIONBYTE_WRP | OPTIONBYTE_RDP | OPTIONBYTE_USER;
 462:Drivers/STM32F3xx_HAL_Driver/Src/stm32f3xx_hal_flash_ex.c **** 
 463:Drivers/STM32F3xx_HAL_Driver/Src/stm32f3xx_hal_flash_ex.c ****   /*Get WRP*/
 464:Drivers/STM32F3xx_HAL_Driver/Src/stm32f3xx_hal_flash_ex.c ****   pOBInit->WRPPage = FLASH_OB_GetWRP();
 465:Drivers/STM32F3xx_HAL_Driver/Src/stm32f3xx_hal_flash_ex.c **** 
 466:Drivers/STM32F3xx_HAL_Driver/Src/stm32f3xx_hal_flash_ex.c ****   /*Get RDP Level*/
 467:Drivers/STM32F3xx_HAL_Driver/Src/stm32f3xx_hal_flash_ex.c ****   pOBInit->RDPLevel = FLASH_OB_GetRDP();
 468:Drivers/STM32F3xx_HAL_Driver/Src/stm32f3xx_hal_flash_ex.c **** 
 469:Drivers/STM32F3xx_HAL_Driver/Src/stm32f3xx_hal_flash_ex.c ****   /*Get USER*/
 470:Drivers/STM32F3xx_HAL_Driver/Src/stm32f3xx_hal_flash_ex.c ****   pOBInit->USERConfig = FLASH_OB_GetUser();
 471:Drivers/STM32F3xx_HAL_Driver/Src/stm32f3xx_hal_flash_ex.c **** }
 472:Drivers/STM32F3xx_HAL_Driver/Src/stm32f3xx_hal_flash_ex.c **** 
 473:Drivers/STM32F3xx_HAL_Driver/Src/stm32f3xx_hal_flash_ex.c **** /**
 474:Drivers/STM32F3xx_HAL_Driver/Src/stm32f3xx_hal_flash_ex.c ****   * @brief  Get the Option byte user data
 475:Drivers/STM32F3xx_HAL_Driver/Src/stm32f3xx_hal_flash_ex.c ****   * @param  DATAAdress Address of the option byte DATA
 476:Drivers/STM32F3xx_HAL_Driver/Src/stm32f3xx_hal_flash_ex.c ****   *          This parameter can be one of the following values:
 477:Drivers/STM32F3xx_HAL_Driver/Src/stm32f3xx_hal_flash_ex.c ****   *            @arg @ref OB_DATA_ADDRESS_DATA0
 478:Drivers/STM32F3xx_HAL_Driver/Src/stm32f3xx_hal_flash_ex.c ****   *            @arg @ref OB_DATA_ADDRESS_DATA1
 479:Drivers/STM32F3xx_HAL_Driver/Src/stm32f3xx_hal_flash_ex.c ****   * @retval Value programmed in USER data
 480:Drivers/STM32F3xx_HAL_Driver/Src/stm32f3xx_hal_flash_ex.c ****   */
 481:Drivers/STM32F3xx_HAL_Driver/Src/stm32f3xx_hal_flash_ex.c **** uint32_t HAL_FLASHEx_OBGetUserData(uint32_t DATAAdress)
 482:Drivers/STM32F3xx_HAL_Driver/Src/stm32f3xx_hal_flash_ex.c **** {
 483:Drivers/STM32F3xx_HAL_Driver/Src/stm32f3xx_hal_flash_ex.c ****   uint32_t value = 0U;
 484:Drivers/STM32F3xx_HAL_Driver/Src/stm32f3xx_hal_flash_ex.c ****   
 485:Drivers/STM32F3xx_HAL_Driver/Src/stm32f3xx_hal_flash_ex.c ****   if (DATAAdress == OB_DATA_ADDRESS_DATA0)
 486:Drivers/STM32F3xx_HAL_Driver/Src/stm32f3xx_hal_flash_ex.c ****   {
 487:Drivers/STM32F3xx_HAL_Driver/Src/stm32f3xx_hal_flash_ex.c ****     /* Get value programmed in OB USER Data0 */
ARM GAS  /var/folders/md/lgcc8l7571l9vt9sx0g0zflw0000gn/T//ccWpNrmC.s 			page 10


 488:Drivers/STM32F3xx_HAL_Driver/Src/stm32f3xx_hal_flash_ex.c ****     value = READ_BIT(FLASH->OBR, FLASH_OBR_DATA0) >> FLASH_POSITION_OB_USERDATA0_BIT;
 489:Drivers/STM32F3xx_HAL_Driver/Src/stm32f3xx_hal_flash_ex.c ****   }
 490:Drivers/STM32F3xx_HAL_Driver/Src/stm32f3xx_hal_flash_ex.c ****   else
 491:Drivers/STM32F3xx_HAL_Driver/Src/stm32f3xx_hal_flash_ex.c ****   {
 492:Drivers/STM32F3xx_HAL_Driver/Src/stm32f3xx_hal_flash_ex.c ****     /* Get value programmed in OB USER Data1 */
 493:Drivers/STM32F3xx_HAL_Driver/Src/stm32f3xx_hal_flash_ex.c ****     value = READ_BIT(FLASH->OBR, FLASH_OBR_DATA1) >> FLASH_POSITION_OB_USERDATA1_BIT;
 494:Drivers/STM32F3xx_HAL_Driver/Src/stm32f3xx_hal_flash_ex.c ****   }
 495:Drivers/STM32F3xx_HAL_Driver/Src/stm32f3xx_hal_flash_ex.c ****   
 496:Drivers/STM32F3xx_HAL_Driver/Src/stm32f3xx_hal_flash_ex.c ****   return value;
 497:Drivers/STM32F3xx_HAL_Driver/Src/stm32f3xx_hal_flash_ex.c **** }
 498:Drivers/STM32F3xx_HAL_Driver/Src/stm32f3xx_hal_flash_ex.c **** 
 499:Drivers/STM32F3xx_HAL_Driver/Src/stm32f3xx_hal_flash_ex.c **** /**
 500:Drivers/STM32F3xx_HAL_Driver/Src/stm32f3xx_hal_flash_ex.c ****   * @}
 501:Drivers/STM32F3xx_HAL_Driver/Src/stm32f3xx_hal_flash_ex.c ****   */
 502:Drivers/STM32F3xx_HAL_Driver/Src/stm32f3xx_hal_flash_ex.c **** 
 503:Drivers/STM32F3xx_HAL_Driver/Src/stm32f3xx_hal_flash_ex.c **** /**
 504:Drivers/STM32F3xx_HAL_Driver/Src/stm32f3xx_hal_flash_ex.c ****   * @}
 505:Drivers/STM32F3xx_HAL_Driver/Src/stm32f3xx_hal_flash_ex.c ****   */
 506:Drivers/STM32F3xx_HAL_Driver/Src/stm32f3xx_hal_flash_ex.c **** 
 507:Drivers/STM32F3xx_HAL_Driver/Src/stm32f3xx_hal_flash_ex.c **** /** @addtogroup FLASHEx_Private_Functions
 508:Drivers/STM32F3xx_HAL_Driver/Src/stm32f3xx_hal_flash_ex.c ****  * @{
 509:Drivers/STM32F3xx_HAL_Driver/Src/stm32f3xx_hal_flash_ex.c ****  */
 510:Drivers/STM32F3xx_HAL_Driver/Src/stm32f3xx_hal_flash_ex.c **** 
 511:Drivers/STM32F3xx_HAL_Driver/Src/stm32f3xx_hal_flash_ex.c **** /**
 512:Drivers/STM32F3xx_HAL_Driver/Src/stm32f3xx_hal_flash_ex.c ****   * @brief  Full erase of FLASH memory Bank 
 513:Drivers/STM32F3xx_HAL_Driver/Src/stm32f3xx_hal_flash_ex.c ****   *
 514:Drivers/STM32F3xx_HAL_Driver/Src/stm32f3xx_hal_flash_ex.c ****   * @retval None
 515:Drivers/STM32F3xx_HAL_Driver/Src/stm32f3xx_hal_flash_ex.c ****   */
 516:Drivers/STM32F3xx_HAL_Driver/Src/stm32f3xx_hal_flash_ex.c **** static void FLASH_MassErase(void)
 517:Drivers/STM32F3xx_HAL_Driver/Src/stm32f3xx_hal_flash_ex.c **** {
  28              		.loc 1 517 1 view -0
  29              		.cfi_startproc
  30              		@ args = 0, pretend = 0, frame = 0
  31              		@ frame_needed = 0, uses_anonymous_args = 0
  32              		@ link register save eliminated.
 518:Drivers/STM32F3xx_HAL_Driver/Src/stm32f3xx_hal_flash_ex.c ****   /* Clean the error context */
 519:Drivers/STM32F3xx_HAL_Driver/Src/stm32f3xx_hal_flash_ex.c ****   pFlash.ErrorCode = HAL_FLASH_ERROR_NONE;
  33              		.loc 1 519 3 view .LVU1
  34              		.loc 1 519 20 is_stmt 0 view .LVU2
  35 0000 064B     		ldr	r3, .L2
  36 0002 0022     		movs	r2, #0
  37 0004 DA61     		str	r2, [r3, #28]
 520:Drivers/STM32F3xx_HAL_Driver/Src/stm32f3xx_hal_flash_ex.c **** 
 521:Drivers/STM32F3xx_HAL_Driver/Src/stm32f3xx_hal_flash_ex.c ****     /* Only bank1 will be erased*/
 522:Drivers/STM32F3xx_HAL_Driver/Src/stm32f3xx_hal_flash_ex.c ****     SET_BIT(FLASH->CR, FLASH_CR_MER);
  38              		.loc 1 522 5 is_stmt 1 view .LVU3
  39 0006 064B     		ldr	r3, .L2+4
  40 0008 1A69     		ldr	r2, [r3, #16]
  41 000a 42F00402 		orr	r2, r2, #4
  42 000e 1A61     		str	r2, [r3, #16]
 523:Drivers/STM32F3xx_HAL_Driver/Src/stm32f3xx_hal_flash_ex.c ****     SET_BIT(FLASH->CR, FLASH_CR_STRT);
  43              		.loc 1 523 5 view .LVU4
  44 0010 1A69     		ldr	r2, [r3, #16]
  45 0012 42F04002 		orr	r2, r2, #64
  46 0016 1A61     		str	r2, [r3, #16]
 524:Drivers/STM32F3xx_HAL_Driver/Src/stm32f3xx_hal_flash_ex.c **** }
  47              		.loc 1 524 1 is_stmt 0 view .LVU5
ARM GAS  /var/folders/md/lgcc8l7571l9vt9sx0g0zflw0000gn/T//ccWpNrmC.s 			page 11


  48 0018 7047     		bx	lr
  49              	.L3:
  50 001a 00BF     		.align	2
  51              	.L2:
  52 001c 00000000 		.word	pFlash
  53 0020 00200240 		.word	1073881088
  54              		.cfi_endproc
  55              	.LFE132:
  57              		.section	.text.FLASH_OB_GetWRP,"ax",%progbits
  58              		.align	1
  59              		.syntax unified
  60              		.thumb
  61              		.thumb_func
  62              		.fpu fpv4-sp-d16
  64              	FLASH_OB_GetWRP:
  65              	.LFB138:
 525:Drivers/STM32F3xx_HAL_Driver/Src/stm32f3xx_hal_flash_ex.c **** 
 526:Drivers/STM32F3xx_HAL_Driver/Src/stm32f3xx_hal_flash_ex.c **** /**
 527:Drivers/STM32F3xx_HAL_Driver/Src/stm32f3xx_hal_flash_ex.c ****   * @brief  Enable the write protection of the desired pages
 528:Drivers/STM32F3xx_HAL_Driver/Src/stm32f3xx_hal_flash_ex.c ****   * @note   An option byte erase is done automatically in this function. 
 529:Drivers/STM32F3xx_HAL_Driver/Src/stm32f3xx_hal_flash_ex.c ****   * @note   When the memory read protection level is selected (RDP level = 1), 
 530:Drivers/STM32F3xx_HAL_Driver/Src/stm32f3xx_hal_flash_ex.c ****   *         it is not possible to program or erase the flash page i if
 531:Drivers/STM32F3xx_HAL_Driver/Src/stm32f3xx_hal_flash_ex.c ****   *         debug features are connected or boot code is executed in RAM, even if nWRPi = 1 
 532:Drivers/STM32F3xx_HAL_Driver/Src/stm32f3xx_hal_flash_ex.c ****   * 
 533:Drivers/STM32F3xx_HAL_Driver/Src/stm32f3xx_hal_flash_ex.c ****   * @param  WriteProtectPage specifies the page(s) to be write protected.
 534:Drivers/STM32F3xx_HAL_Driver/Src/stm32f3xx_hal_flash_ex.c ****   *         The value of this parameter depend on device used within the same series 
 535:Drivers/STM32F3xx_HAL_Driver/Src/stm32f3xx_hal_flash_ex.c ****   * @retval HAL status 
 536:Drivers/STM32F3xx_HAL_Driver/Src/stm32f3xx_hal_flash_ex.c ****   */
 537:Drivers/STM32F3xx_HAL_Driver/Src/stm32f3xx_hal_flash_ex.c **** static HAL_StatusTypeDef FLASH_OB_EnableWRP(uint32_t WriteProtectPage)
 538:Drivers/STM32F3xx_HAL_Driver/Src/stm32f3xx_hal_flash_ex.c **** {
 539:Drivers/STM32F3xx_HAL_Driver/Src/stm32f3xx_hal_flash_ex.c ****   HAL_StatusTypeDef status = HAL_OK;
 540:Drivers/STM32F3xx_HAL_Driver/Src/stm32f3xx_hal_flash_ex.c ****   uint16_t WRP0_Data = 0xFFFFU;
 541:Drivers/STM32F3xx_HAL_Driver/Src/stm32f3xx_hal_flash_ex.c **** #if defined(OB_WRP1_WRP1)
 542:Drivers/STM32F3xx_HAL_Driver/Src/stm32f3xx_hal_flash_ex.c ****   uint16_t WRP1_Data = 0xFFFFU;
 543:Drivers/STM32F3xx_HAL_Driver/Src/stm32f3xx_hal_flash_ex.c **** #endif /* OB_WRP1_WRP1 */
 544:Drivers/STM32F3xx_HAL_Driver/Src/stm32f3xx_hal_flash_ex.c **** #if defined(OB_WRP2_WRP2)
 545:Drivers/STM32F3xx_HAL_Driver/Src/stm32f3xx_hal_flash_ex.c ****   uint16_t WRP2_Data = 0xFFFFU;
 546:Drivers/STM32F3xx_HAL_Driver/Src/stm32f3xx_hal_flash_ex.c **** #endif /* OB_WRP2_WRP2 */
 547:Drivers/STM32F3xx_HAL_Driver/Src/stm32f3xx_hal_flash_ex.c **** #if defined(OB_WRP3_WRP3)
 548:Drivers/STM32F3xx_HAL_Driver/Src/stm32f3xx_hal_flash_ex.c ****   uint16_t WRP3_Data = 0xFFFFU;
 549:Drivers/STM32F3xx_HAL_Driver/Src/stm32f3xx_hal_flash_ex.c **** #endif /* OB_WRP3_WRP3 */
 550:Drivers/STM32F3xx_HAL_Driver/Src/stm32f3xx_hal_flash_ex.c ****   
 551:Drivers/STM32F3xx_HAL_Driver/Src/stm32f3xx_hal_flash_ex.c ****   /* Check the parameters */
 552:Drivers/STM32F3xx_HAL_Driver/Src/stm32f3xx_hal_flash_ex.c ****   assert_param(IS_OB_WRP(WriteProtectPage));
 553:Drivers/STM32F3xx_HAL_Driver/Src/stm32f3xx_hal_flash_ex.c ****     
 554:Drivers/STM32F3xx_HAL_Driver/Src/stm32f3xx_hal_flash_ex.c ****   /* Get current write protected pages and the new pages to be protected ******/
 555:Drivers/STM32F3xx_HAL_Driver/Src/stm32f3xx_hal_flash_ex.c ****   WriteProtectPage = (uint32_t)(~((~FLASH_OB_GetWRP()) | WriteProtectPage));
 556:Drivers/STM32F3xx_HAL_Driver/Src/stm32f3xx_hal_flash_ex.c ****   
 557:Drivers/STM32F3xx_HAL_Driver/Src/stm32f3xx_hal_flash_ex.c **** #if defined(OB_WRP_PAGES0TO15MASK)
 558:Drivers/STM32F3xx_HAL_Driver/Src/stm32f3xx_hal_flash_ex.c ****   WRP0_Data = (uint16_t)(WriteProtectPage & OB_WRP_PAGES0TO15MASK);
 559:Drivers/STM32F3xx_HAL_Driver/Src/stm32f3xx_hal_flash_ex.c **** #endif /* OB_WRP_PAGES0TO31MASK */
 560:Drivers/STM32F3xx_HAL_Driver/Src/stm32f3xx_hal_flash_ex.c ****   
 561:Drivers/STM32F3xx_HAL_Driver/Src/stm32f3xx_hal_flash_ex.c **** #if defined(OB_WRP_PAGES16TO31MASK)
 562:Drivers/STM32F3xx_HAL_Driver/Src/stm32f3xx_hal_flash_ex.c ****   WRP1_Data = (uint16_t)((WriteProtectPage & OB_WRP_PAGES16TO31MASK) >> 8U);
 563:Drivers/STM32F3xx_HAL_Driver/Src/stm32f3xx_hal_flash_ex.c **** #endif /* OB_WRP_PAGES32TO63MASK */
 564:Drivers/STM32F3xx_HAL_Driver/Src/stm32f3xx_hal_flash_ex.c ****  
 565:Drivers/STM32F3xx_HAL_Driver/Src/stm32f3xx_hal_flash_ex.c **** #if defined(OB_WRP_PAGES32TO47MASK)
ARM GAS  /var/folders/md/lgcc8l7571l9vt9sx0g0zflw0000gn/T//ccWpNrmC.s 			page 12


 566:Drivers/STM32F3xx_HAL_Driver/Src/stm32f3xx_hal_flash_ex.c ****   WRP2_Data = (uint16_t)((WriteProtectPage & OB_WRP_PAGES32TO47MASK) >> 16U);
 567:Drivers/STM32F3xx_HAL_Driver/Src/stm32f3xx_hal_flash_ex.c **** #endif /* OB_WRP_PAGES32TO47MASK */
 568:Drivers/STM32F3xx_HAL_Driver/Src/stm32f3xx_hal_flash_ex.c **** 
 569:Drivers/STM32F3xx_HAL_Driver/Src/stm32f3xx_hal_flash_ex.c **** #if defined(OB_WRP_PAGES48TO127MASK)
 570:Drivers/STM32F3xx_HAL_Driver/Src/stm32f3xx_hal_flash_ex.c ****   WRP3_Data = (uint16_t)((WriteProtectPage & OB_WRP_PAGES48TO127MASK) >> 24U); 
 571:Drivers/STM32F3xx_HAL_Driver/Src/stm32f3xx_hal_flash_ex.c **** #elif defined(OB_WRP_PAGES48TO255MASK)
 572:Drivers/STM32F3xx_HAL_Driver/Src/stm32f3xx_hal_flash_ex.c ****   WRP3_Data = (uint16_t)((WriteProtectPage & OB_WRP_PAGES48TO255MASK) >> 24U); 
 573:Drivers/STM32F3xx_HAL_Driver/Src/stm32f3xx_hal_flash_ex.c **** #endif /* OB_WRP_PAGES48TO63MASK */
 574:Drivers/STM32F3xx_HAL_Driver/Src/stm32f3xx_hal_flash_ex.c ****   
 575:Drivers/STM32F3xx_HAL_Driver/Src/stm32f3xx_hal_flash_ex.c ****   /* Wait for last operation to be completed */
 576:Drivers/STM32F3xx_HAL_Driver/Src/stm32f3xx_hal_flash_ex.c ****   status = FLASH_WaitForLastOperation((uint32_t)FLASH_TIMEOUT_VALUE);
 577:Drivers/STM32F3xx_HAL_Driver/Src/stm32f3xx_hal_flash_ex.c **** 
 578:Drivers/STM32F3xx_HAL_Driver/Src/stm32f3xx_hal_flash_ex.c ****   if(status == HAL_OK)
 579:Drivers/STM32F3xx_HAL_Driver/Src/stm32f3xx_hal_flash_ex.c ****   { 
 580:Drivers/STM32F3xx_HAL_Driver/Src/stm32f3xx_hal_flash_ex.c ****     /* Clean the error context */
 581:Drivers/STM32F3xx_HAL_Driver/Src/stm32f3xx_hal_flash_ex.c ****     pFlash.ErrorCode = HAL_FLASH_ERROR_NONE;
 582:Drivers/STM32F3xx_HAL_Driver/Src/stm32f3xx_hal_flash_ex.c **** 
 583:Drivers/STM32F3xx_HAL_Driver/Src/stm32f3xx_hal_flash_ex.c ****     /* To be able to write again option byte, need to perform a option byte erase */
 584:Drivers/STM32F3xx_HAL_Driver/Src/stm32f3xx_hal_flash_ex.c ****     status = HAL_FLASHEx_OBErase();
 585:Drivers/STM32F3xx_HAL_Driver/Src/stm32f3xx_hal_flash_ex.c ****     if (status == HAL_OK)  
 586:Drivers/STM32F3xx_HAL_Driver/Src/stm32f3xx_hal_flash_ex.c ****     {
 587:Drivers/STM32F3xx_HAL_Driver/Src/stm32f3xx_hal_flash_ex.c ****       /* Enable write protection */
 588:Drivers/STM32F3xx_HAL_Driver/Src/stm32f3xx_hal_flash_ex.c ****       SET_BIT(FLASH->CR, FLASH_CR_OPTPG);
 589:Drivers/STM32F3xx_HAL_Driver/Src/stm32f3xx_hal_flash_ex.c **** 
 590:Drivers/STM32F3xx_HAL_Driver/Src/stm32f3xx_hal_flash_ex.c **** #if defined(OB_WRP0_WRP0)
 591:Drivers/STM32F3xx_HAL_Driver/Src/stm32f3xx_hal_flash_ex.c ****       if(WRP0_Data != 0xFFU)
 592:Drivers/STM32F3xx_HAL_Driver/Src/stm32f3xx_hal_flash_ex.c ****       {
 593:Drivers/STM32F3xx_HAL_Driver/Src/stm32f3xx_hal_flash_ex.c ****         OB->WRP0 &= WRP0_Data;
 594:Drivers/STM32F3xx_HAL_Driver/Src/stm32f3xx_hal_flash_ex.c ****         
 595:Drivers/STM32F3xx_HAL_Driver/Src/stm32f3xx_hal_flash_ex.c ****         /* Wait for last operation to be completed */
 596:Drivers/STM32F3xx_HAL_Driver/Src/stm32f3xx_hal_flash_ex.c ****         status = FLASH_WaitForLastOperation((uint32_t)FLASH_TIMEOUT_VALUE);
 597:Drivers/STM32F3xx_HAL_Driver/Src/stm32f3xx_hal_flash_ex.c ****       }
 598:Drivers/STM32F3xx_HAL_Driver/Src/stm32f3xx_hal_flash_ex.c **** #endif /* OB_WRP0_WRP0 */
 599:Drivers/STM32F3xx_HAL_Driver/Src/stm32f3xx_hal_flash_ex.c **** 
 600:Drivers/STM32F3xx_HAL_Driver/Src/stm32f3xx_hal_flash_ex.c **** #if defined(OB_WRP1_WRP1)
 601:Drivers/STM32F3xx_HAL_Driver/Src/stm32f3xx_hal_flash_ex.c ****       if((status == HAL_OK) && (WRP1_Data != 0xFFU))
 602:Drivers/STM32F3xx_HAL_Driver/Src/stm32f3xx_hal_flash_ex.c ****       {
 603:Drivers/STM32F3xx_HAL_Driver/Src/stm32f3xx_hal_flash_ex.c ****         OB->WRP1 &= WRP1_Data;
 604:Drivers/STM32F3xx_HAL_Driver/Src/stm32f3xx_hal_flash_ex.c ****         
 605:Drivers/STM32F3xx_HAL_Driver/Src/stm32f3xx_hal_flash_ex.c ****         /* Wait for last operation to be completed */
 606:Drivers/STM32F3xx_HAL_Driver/Src/stm32f3xx_hal_flash_ex.c ****         status = FLASH_WaitForLastOperation((uint32_t)FLASH_TIMEOUT_VALUE);
 607:Drivers/STM32F3xx_HAL_Driver/Src/stm32f3xx_hal_flash_ex.c ****       }
 608:Drivers/STM32F3xx_HAL_Driver/Src/stm32f3xx_hal_flash_ex.c **** #endif /* OB_WRP1_WRP1 */
 609:Drivers/STM32F3xx_HAL_Driver/Src/stm32f3xx_hal_flash_ex.c **** 
 610:Drivers/STM32F3xx_HAL_Driver/Src/stm32f3xx_hal_flash_ex.c **** #if defined(OB_WRP2_WRP2)
 611:Drivers/STM32F3xx_HAL_Driver/Src/stm32f3xx_hal_flash_ex.c ****       if((status == HAL_OK) && (WRP2_Data != 0xFFU))
 612:Drivers/STM32F3xx_HAL_Driver/Src/stm32f3xx_hal_flash_ex.c ****       {
 613:Drivers/STM32F3xx_HAL_Driver/Src/stm32f3xx_hal_flash_ex.c ****         OB->WRP2 &= WRP2_Data;
 614:Drivers/STM32F3xx_HAL_Driver/Src/stm32f3xx_hal_flash_ex.c ****         
 615:Drivers/STM32F3xx_HAL_Driver/Src/stm32f3xx_hal_flash_ex.c ****         /* Wait for last operation to be completed */
 616:Drivers/STM32F3xx_HAL_Driver/Src/stm32f3xx_hal_flash_ex.c ****         status = FLASH_WaitForLastOperation((uint32_t)FLASH_TIMEOUT_VALUE);
 617:Drivers/STM32F3xx_HAL_Driver/Src/stm32f3xx_hal_flash_ex.c ****       }
 618:Drivers/STM32F3xx_HAL_Driver/Src/stm32f3xx_hal_flash_ex.c **** #endif /* OB_WRP2_WRP2 */
 619:Drivers/STM32F3xx_HAL_Driver/Src/stm32f3xx_hal_flash_ex.c **** 
 620:Drivers/STM32F3xx_HAL_Driver/Src/stm32f3xx_hal_flash_ex.c **** #if defined(OB_WRP3_WRP3)
 621:Drivers/STM32F3xx_HAL_Driver/Src/stm32f3xx_hal_flash_ex.c ****       if((status == HAL_OK) && (WRP3_Data != 0xFFU))
 622:Drivers/STM32F3xx_HAL_Driver/Src/stm32f3xx_hal_flash_ex.c ****       {
ARM GAS  /var/folders/md/lgcc8l7571l9vt9sx0g0zflw0000gn/T//ccWpNrmC.s 			page 13


 623:Drivers/STM32F3xx_HAL_Driver/Src/stm32f3xx_hal_flash_ex.c ****         OB->WRP3 &= WRP3_Data;
 624:Drivers/STM32F3xx_HAL_Driver/Src/stm32f3xx_hal_flash_ex.c ****         
 625:Drivers/STM32F3xx_HAL_Driver/Src/stm32f3xx_hal_flash_ex.c ****         /* Wait for last operation to be completed */
 626:Drivers/STM32F3xx_HAL_Driver/Src/stm32f3xx_hal_flash_ex.c ****         status = FLASH_WaitForLastOperation((uint32_t)FLASH_TIMEOUT_VALUE);
 627:Drivers/STM32F3xx_HAL_Driver/Src/stm32f3xx_hal_flash_ex.c ****       }
 628:Drivers/STM32F3xx_HAL_Driver/Src/stm32f3xx_hal_flash_ex.c **** #endif /* OB_WRP3_WRP3 */
 629:Drivers/STM32F3xx_HAL_Driver/Src/stm32f3xx_hal_flash_ex.c **** 
 630:Drivers/STM32F3xx_HAL_Driver/Src/stm32f3xx_hal_flash_ex.c ****       /* if the program operation is completed, disable the OPTPG Bit */
 631:Drivers/STM32F3xx_HAL_Driver/Src/stm32f3xx_hal_flash_ex.c ****       CLEAR_BIT(FLASH->CR, FLASH_CR_OPTPG);
 632:Drivers/STM32F3xx_HAL_Driver/Src/stm32f3xx_hal_flash_ex.c ****     }
 633:Drivers/STM32F3xx_HAL_Driver/Src/stm32f3xx_hal_flash_ex.c ****   }
 634:Drivers/STM32F3xx_HAL_Driver/Src/stm32f3xx_hal_flash_ex.c ****   
 635:Drivers/STM32F3xx_HAL_Driver/Src/stm32f3xx_hal_flash_ex.c ****   return status;
 636:Drivers/STM32F3xx_HAL_Driver/Src/stm32f3xx_hal_flash_ex.c **** }
 637:Drivers/STM32F3xx_HAL_Driver/Src/stm32f3xx_hal_flash_ex.c **** 
 638:Drivers/STM32F3xx_HAL_Driver/Src/stm32f3xx_hal_flash_ex.c **** /**
 639:Drivers/STM32F3xx_HAL_Driver/Src/stm32f3xx_hal_flash_ex.c ****   * @brief  Disable the write protection of the desired pages
 640:Drivers/STM32F3xx_HAL_Driver/Src/stm32f3xx_hal_flash_ex.c ****   * @note   An option byte erase is done automatically in this function. 
 641:Drivers/STM32F3xx_HAL_Driver/Src/stm32f3xx_hal_flash_ex.c ****   * @note   When the memory read protection level is selected (RDP level = 1), 
 642:Drivers/STM32F3xx_HAL_Driver/Src/stm32f3xx_hal_flash_ex.c ****   *         it is not possible to program or erase the flash page i if   
 643:Drivers/STM32F3xx_HAL_Driver/Src/stm32f3xx_hal_flash_ex.c ****   *         debug features are connected or boot code is executed in RAM, even if nWRPi = 1 
 644:Drivers/STM32F3xx_HAL_Driver/Src/stm32f3xx_hal_flash_ex.c ****   * 
 645:Drivers/STM32F3xx_HAL_Driver/Src/stm32f3xx_hal_flash_ex.c ****   * @param  WriteProtectPage specifies the page(s) to be write unprotected.
 646:Drivers/STM32F3xx_HAL_Driver/Src/stm32f3xx_hal_flash_ex.c ****   *         The value of this parameter depend on device used within the same series 
 647:Drivers/STM32F3xx_HAL_Driver/Src/stm32f3xx_hal_flash_ex.c ****   * @retval HAL status 
 648:Drivers/STM32F3xx_HAL_Driver/Src/stm32f3xx_hal_flash_ex.c ****   */
 649:Drivers/STM32F3xx_HAL_Driver/Src/stm32f3xx_hal_flash_ex.c **** static HAL_StatusTypeDef FLASH_OB_DisableWRP(uint32_t WriteProtectPage)
 650:Drivers/STM32F3xx_HAL_Driver/Src/stm32f3xx_hal_flash_ex.c **** {
 651:Drivers/STM32F3xx_HAL_Driver/Src/stm32f3xx_hal_flash_ex.c ****   HAL_StatusTypeDef status = HAL_OK;
 652:Drivers/STM32F3xx_HAL_Driver/Src/stm32f3xx_hal_flash_ex.c ****   uint16_t WRP0_Data = 0xFFFFU;
 653:Drivers/STM32F3xx_HAL_Driver/Src/stm32f3xx_hal_flash_ex.c **** #if defined(OB_WRP1_WRP1)
 654:Drivers/STM32F3xx_HAL_Driver/Src/stm32f3xx_hal_flash_ex.c ****   uint16_t WRP1_Data = 0xFFFFU;
 655:Drivers/STM32F3xx_HAL_Driver/Src/stm32f3xx_hal_flash_ex.c **** #endif /* OB_WRP1_WRP1 */
 656:Drivers/STM32F3xx_HAL_Driver/Src/stm32f3xx_hal_flash_ex.c **** #if defined(OB_WRP2_WRP2)
 657:Drivers/STM32F3xx_HAL_Driver/Src/stm32f3xx_hal_flash_ex.c ****   uint16_t WRP2_Data = 0xFFFFU;
 658:Drivers/STM32F3xx_HAL_Driver/Src/stm32f3xx_hal_flash_ex.c **** #endif /* OB_WRP2_WRP2 */
 659:Drivers/STM32F3xx_HAL_Driver/Src/stm32f3xx_hal_flash_ex.c **** #if defined(OB_WRP3_WRP3)
 660:Drivers/STM32F3xx_HAL_Driver/Src/stm32f3xx_hal_flash_ex.c ****   uint16_t WRP3_Data = 0xFFFFU;
 661:Drivers/STM32F3xx_HAL_Driver/Src/stm32f3xx_hal_flash_ex.c **** #endif /* OB_WRP3_WRP3 */
 662:Drivers/STM32F3xx_HAL_Driver/Src/stm32f3xx_hal_flash_ex.c ****   
 663:Drivers/STM32F3xx_HAL_Driver/Src/stm32f3xx_hal_flash_ex.c ****   /* Check the parameters */
 664:Drivers/STM32F3xx_HAL_Driver/Src/stm32f3xx_hal_flash_ex.c ****   assert_param(IS_OB_WRP(WriteProtectPage));
 665:Drivers/STM32F3xx_HAL_Driver/Src/stm32f3xx_hal_flash_ex.c **** 
 666:Drivers/STM32F3xx_HAL_Driver/Src/stm32f3xx_hal_flash_ex.c ****   /* Get current write protected pages and the new pages to be unprotected ******/
 667:Drivers/STM32F3xx_HAL_Driver/Src/stm32f3xx_hal_flash_ex.c ****   WriteProtectPage = (FLASH_OB_GetWRP() | WriteProtectPage);
 668:Drivers/STM32F3xx_HAL_Driver/Src/stm32f3xx_hal_flash_ex.c **** 
 669:Drivers/STM32F3xx_HAL_Driver/Src/stm32f3xx_hal_flash_ex.c **** #if defined(OB_WRP_PAGES0TO15MASK)
 670:Drivers/STM32F3xx_HAL_Driver/Src/stm32f3xx_hal_flash_ex.c ****   WRP0_Data = (uint16_t)(WriteProtectPage & OB_WRP_PAGES0TO15MASK);
 671:Drivers/STM32F3xx_HAL_Driver/Src/stm32f3xx_hal_flash_ex.c **** #endif /* OB_WRP_PAGES0TO31MASK */
 672:Drivers/STM32F3xx_HAL_Driver/Src/stm32f3xx_hal_flash_ex.c ****   
 673:Drivers/STM32F3xx_HAL_Driver/Src/stm32f3xx_hal_flash_ex.c **** #if defined(OB_WRP_PAGES16TO31MASK)
 674:Drivers/STM32F3xx_HAL_Driver/Src/stm32f3xx_hal_flash_ex.c ****   WRP1_Data = (uint16_t)((WriteProtectPage & OB_WRP_PAGES16TO31MASK) >> 8U);
 675:Drivers/STM32F3xx_HAL_Driver/Src/stm32f3xx_hal_flash_ex.c **** #endif /* OB_WRP_PAGES32TO63MASK */
 676:Drivers/STM32F3xx_HAL_Driver/Src/stm32f3xx_hal_flash_ex.c ****  
 677:Drivers/STM32F3xx_HAL_Driver/Src/stm32f3xx_hal_flash_ex.c **** #if defined(OB_WRP_PAGES32TO47MASK)
 678:Drivers/STM32F3xx_HAL_Driver/Src/stm32f3xx_hal_flash_ex.c ****   WRP2_Data = (uint16_t)((WriteProtectPage & OB_WRP_PAGES32TO47MASK) >> 16U);
 679:Drivers/STM32F3xx_HAL_Driver/Src/stm32f3xx_hal_flash_ex.c **** #endif /* OB_WRP_PAGES32TO47MASK */
ARM GAS  /var/folders/md/lgcc8l7571l9vt9sx0g0zflw0000gn/T//ccWpNrmC.s 			page 14


 680:Drivers/STM32F3xx_HAL_Driver/Src/stm32f3xx_hal_flash_ex.c **** 
 681:Drivers/STM32F3xx_HAL_Driver/Src/stm32f3xx_hal_flash_ex.c **** #if defined(OB_WRP_PAGES48TO127MASK)
 682:Drivers/STM32F3xx_HAL_Driver/Src/stm32f3xx_hal_flash_ex.c ****   WRP3_Data = (uint16_t)((WriteProtectPage & OB_WRP_PAGES48TO127MASK) >> 24U); 
 683:Drivers/STM32F3xx_HAL_Driver/Src/stm32f3xx_hal_flash_ex.c **** #elif defined(OB_WRP_PAGES48TO255MASK)
 684:Drivers/STM32F3xx_HAL_Driver/Src/stm32f3xx_hal_flash_ex.c ****   WRP3_Data = (uint16_t)((WriteProtectPage & OB_WRP_PAGES48TO255MASK) >> 24U); 
 685:Drivers/STM32F3xx_HAL_Driver/Src/stm32f3xx_hal_flash_ex.c **** #endif /* OB_WRP_PAGES48TO63MASK */
 686:Drivers/STM32F3xx_HAL_Driver/Src/stm32f3xx_hal_flash_ex.c **** 
 687:Drivers/STM32F3xx_HAL_Driver/Src/stm32f3xx_hal_flash_ex.c ****     
 688:Drivers/STM32F3xx_HAL_Driver/Src/stm32f3xx_hal_flash_ex.c ****   /* Wait for last operation to be completed */
 689:Drivers/STM32F3xx_HAL_Driver/Src/stm32f3xx_hal_flash_ex.c ****   status = FLASH_WaitForLastOperation((uint32_t)FLASH_TIMEOUT_VALUE);
 690:Drivers/STM32F3xx_HAL_Driver/Src/stm32f3xx_hal_flash_ex.c **** 
 691:Drivers/STM32F3xx_HAL_Driver/Src/stm32f3xx_hal_flash_ex.c ****   if(status == HAL_OK)
 692:Drivers/STM32F3xx_HAL_Driver/Src/stm32f3xx_hal_flash_ex.c ****   { 
 693:Drivers/STM32F3xx_HAL_Driver/Src/stm32f3xx_hal_flash_ex.c ****     /* Clean the error context */
 694:Drivers/STM32F3xx_HAL_Driver/Src/stm32f3xx_hal_flash_ex.c ****     pFlash.ErrorCode = HAL_FLASH_ERROR_NONE;
 695:Drivers/STM32F3xx_HAL_Driver/Src/stm32f3xx_hal_flash_ex.c **** 
 696:Drivers/STM32F3xx_HAL_Driver/Src/stm32f3xx_hal_flash_ex.c ****     /* To be able to write again option byte, need to perform a option byte erase */
 697:Drivers/STM32F3xx_HAL_Driver/Src/stm32f3xx_hal_flash_ex.c ****     status = HAL_FLASHEx_OBErase();
 698:Drivers/STM32F3xx_HAL_Driver/Src/stm32f3xx_hal_flash_ex.c ****     if (status == HAL_OK)  
 699:Drivers/STM32F3xx_HAL_Driver/Src/stm32f3xx_hal_flash_ex.c ****     {
 700:Drivers/STM32F3xx_HAL_Driver/Src/stm32f3xx_hal_flash_ex.c ****       SET_BIT(FLASH->CR, FLASH_CR_OPTPG);
 701:Drivers/STM32F3xx_HAL_Driver/Src/stm32f3xx_hal_flash_ex.c **** 
 702:Drivers/STM32F3xx_HAL_Driver/Src/stm32f3xx_hal_flash_ex.c **** #if defined(OB_WRP0_WRP0)
 703:Drivers/STM32F3xx_HAL_Driver/Src/stm32f3xx_hal_flash_ex.c ****       if(WRP0_Data != 0xFFU)
 704:Drivers/STM32F3xx_HAL_Driver/Src/stm32f3xx_hal_flash_ex.c ****       {
 705:Drivers/STM32F3xx_HAL_Driver/Src/stm32f3xx_hal_flash_ex.c ****         OB->WRP0 |= WRP0_Data;
 706:Drivers/STM32F3xx_HAL_Driver/Src/stm32f3xx_hal_flash_ex.c ****         
 707:Drivers/STM32F3xx_HAL_Driver/Src/stm32f3xx_hal_flash_ex.c ****         /* Wait for last operation to be completed */
 708:Drivers/STM32F3xx_HAL_Driver/Src/stm32f3xx_hal_flash_ex.c ****         status = FLASH_WaitForLastOperation((uint32_t)FLASH_TIMEOUT_VALUE);
 709:Drivers/STM32F3xx_HAL_Driver/Src/stm32f3xx_hal_flash_ex.c ****       }
 710:Drivers/STM32F3xx_HAL_Driver/Src/stm32f3xx_hal_flash_ex.c **** #endif /* OB_WRP0_WRP0 */
 711:Drivers/STM32F3xx_HAL_Driver/Src/stm32f3xx_hal_flash_ex.c **** 
 712:Drivers/STM32F3xx_HAL_Driver/Src/stm32f3xx_hal_flash_ex.c **** #if defined(OB_WRP1_WRP1)
 713:Drivers/STM32F3xx_HAL_Driver/Src/stm32f3xx_hal_flash_ex.c ****       if((status == HAL_OK) && (WRP1_Data != 0xFFU))
 714:Drivers/STM32F3xx_HAL_Driver/Src/stm32f3xx_hal_flash_ex.c ****       {
 715:Drivers/STM32F3xx_HAL_Driver/Src/stm32f3xx_hal_flash_ex.c ****         OB->WRP1 |= WRP1_Data;
 716:Drivers/STM32F3xx_HAL_Driver/Src/stm32f3xx_hal_flash_ex.c ****         
 717:Drivers/STM32F3xx_HAL_Driver/Src/stm32f3xx_hal_flash_ex.c ****         /* Wait for last operation to be completed */
 718:Drivers/STM32F3xx_HAL_Driver/Src/stm32f3xx_hal_flash_ex.c ****         status = FLASH_WaitForLastOperation((uint32_t)FLASH_TIMEOUT_VALUE);
 719:Drivers/STM32F3xx_HAL_Driver/Src/stm32f3xx_hal_flash_ex.c ****       }
 720:Drivers/STM32F3xx_HAL_Driver/Src/stm32f3xx_hal_flash_ex.c **** #endif /* OB_WRP1_WRP1 */
 721:Drivers/STM32F3xx_HAL_Driver/Src/stm32f3xx_hal_flash_ex.c **** 
 722:Drivers/STM32F3xx_HAL_Driver/Src/stm32f3xx_hal_flash_ex.c **** #if defined(OB_WRP2_WRP2)
 723:Drivers/STM32F3xx_HAL_Driver/Src/stm32f3xx_hal_flash_ex.c ****       if((status == HAL_OK) && (WRP2_Data != 0xFFU))
 724:Drivers/STM32F3xx_HAL_Driver/Src/stm32f3xx_hal_flash_ex.c ****       {
 725:Drivers/STM32F3xx_HAL_Driver/Src/stm32f3xx_hal_flash_ex.c ****         OB->WRP2 |= WRP2_Data;
 726:Drivers/STM32F3xx_HAL_Driver/Src/stm32f3xx_hal_flash_ex.c ****         
 727:Drivers/STM32F3xx_HAL_Driver/Src/stm32f3xx_hal_flash_ex.c ****         /* Wait for last operation to be completed */
 728:Drivers/STM32F3xx_HAL_Driver/Src/stm32f3xx_hal_flash_ex.c ****         status = FLASH_WaitForLastOperation((uint32_t)FLASH_TIMEOUT_VALUE);
 729:Drivers/STM32F3xx_HAL_Driver/Src/stm32f3xx_hal_flash_ex.c ****       }
 730:Drivers/STM32F3xx_HAL_Driver/Src/stm32f3xx_hal_flash_ex.c **** #endif /* OB_WRP2_WRP2 */
 731:Drivers/STM32F3xx_HAL_Driver/Src/stm32f3xx_hal_flash_ex.c **** 
 732:Drivers/STM32F3xx_HAL_Driver/Src/stm32f3xx_hal_flash_ex.c **** #if defined(OB_WRP3_WRP3)
 733:Drivers/STM32F3xx_HAL_Driver/Src/stm32f3xx_hal_flash_ex.c ****       if((status == HAL_OK) && (WRP3_Data != 0xFFU))
 734:Drivers/STM32F3xx_HAL_Driver/Src/stm32f3xx_hal_flash_ex.c ****       {
 735:Drivers/STM32F3xx_HAL_Driver/Src/stm32f3xx_hal_flash_ex.c ****         OB->WRP3 |= WRP3_Data;
 736:Drivers/STM32F3xx_HAL_Driver/Src/stm32f3xx_hal_flash_ex.c ****         
ARM GAS  /var/folders/md/lgcc8l7571l9vt9sx0g0zflw0000gn/T//ccWpNrmC.s 			page 15


 737:Drivers/STM32F3xx_HAL_Driver/Src/stm32f3xx_hal_flash_ex.c ****         /* Wait for last operation to be completed */
 738:Drivers/STM32F3xx_HAL_Driver/Src/stm32f3xx_hal_flash_ex.c ****         status = FLASH_WaitForLastOperation((uint32_t)FLASH_TIMEOUT_VALUE);
 739:Drivers/STM32F3xx_HAL_Driver/Src/stm32f3xx_hal_flash_ex.c ****       }
 740:Drivers/STM32F3xx_HAL_Driver/Src/stm32f3xx_hal_flash_ex.c **** #endif /* OB_WRP3_WRP3 */
 741:Drivers/STM32F3xx_HAL_Driver/Src/stm32f3xx_hal_flash_ex.c **** 
 742:Drivers/STM32F3xx_HAL_Driver/Src/stm32f3xx_hal_flash_ex.c ****       /* if the program operation is completed, disable the OPTPG Bit */
 743:Drivers/STM32F3xx_HAL_Driver/Src/stm32f3xx_hal_flash_ex.c ****       CLEAR_BIT(FLASH->CR, FLASH_CR_OPTPG);
 744:Drivers/STM32F3xx_HAL_Driver/Src/stm32f3xx_hal_flash_ex.c ****     }
 745:Drivers/STM32F3xx_HAL_Driver/Src/stm32f3xx_hal_flash_ex.c ****   }
 746:Drivers/STM32F3xx_HAL_Driver/Src/stm32f3xx_hal_flash_ex.c ****   return status;
 747:Drivers/STM32F3xx_HAL_Driver/Src/stm32f3xx_hal_flash_ex.c **** }
 748:Drivers/STM32F3xx_HAL_Driver/Src/stm32f3xx_hal_flash_ex.c **** 
 749:Drivers/STM32F3xx_HAL_Driver/Src/stm32f3xx_hal_flash_ex.c **** /**
 750:Drivers/STM32F3xx_HAL_Driver/Src/stm32f3xx_hal_flash_ex.c ****   * @brief  Set the read protection level.
 751:Drivers/STM32F3xx_HAL_Driver/Src/stm32f3xx_hal_flash_ex.c ****   * @param  ReadProtectLevel specifies the read protection level.
 752:Drivers/STM32F3xx_HAL_Driver/Src/stm32f3xx_hal_flash_ex.c ****   *         This parameter can be one of the following values:
 753:Drivers/STM32F3xx_HAL_Driver/Src/stm32f3xx_hal_flash_ex.c ****   *            @arg @ref OB_RDP_LEVEL_0 No protection
 754:Drivers/STM32F3xx_HAL_Driver/Src/stm32f3xx_hal_flash_ex.c ****   *            @arg @ref OB_RDP_LEVEL_1 Read protection of the memory
 755:Drivers/STM32F3xx_HAL_Driver/Src/stm32f3xx_hal_flash_ex.c ****   *            @arg @ref OB_RDP_LEVEL_2 Full chip protection
 756:Drivers/STM32F3xx_HAL_Driver/Src/stm32f3xx_hal_flash_ex.c ****   * @note   Warning: When enabling OB_RDP level 2 it's no more possible to go back to level 1 or 0
 757:Drivers/STM32F3xx_HAL_Driver/Src/stm32f3xx_hal_flash_ex.c ****   * @retval HAL status
 758:Drivers/STM32F3xx_HAL_Driver/Src/stm32f3xx_hal_flash_ex.c ****   */
 759:Drivers/STM32F3xx_HAL_Driver/Src/stm32f3xx_hal_flash_ex.c **** static HAL_StatusTypeDef FLASH_OB_RDP_LevelConfig(uint8_t ReadProtectLevel)
 760:Drivers/STM32F3xx_HAL_Driver/Src/stm32f3xx_hal_flash_ex.c **** {
 761:Drivers/STM32F3xx_HAL_Driver/Src/stm32f3xx_hal_flash_ex.c ****   HAL_StatusTypeDef status = HAL_OK;
 762:Drivers/STM32F3xx_HAL_Driver/Src/stm32f3xx_hal_flash_ex.c ****   
 763:Drivers/STM32F3xx_HAL_Driver/Src/stm32f3xx_hal_flash_ex.c ****   /* Check the parameters */
 764:Drivers/STM32F3xx_HAL_Driver/Src/stm32f3xx_hal_flash_ex.c ****   assert_param(IS_OB_RDP_LEVEL(ReadProtectLevel));
 765:Drivers/STM32F3xx_HAL_Driver/Src/stm32f3xx_hal_flash_ex.c ****   
 766:Drivers/STM32F3xx_HAL_Driver/Src/stm32f3xx_hal_flash_ex.c ****   /* Wait for last operation to be completed */
 767:Drivers/STM32F3xx_HAL_Driver/Src/stm32f3xx_hal_flash_ex.c ****   status = FLASH_WaitForLastOperation((uint32_t)FLASH_TIMEOUT_VALUE);
 768:Drivers/STM32F3xx_HAL_Driver/Src/stm32f3xx_hal_flash_ex.c ****   
 769:Drivers/STM32F3xx_HAL_Driver/Src/stm32f3xx_hal_flash_ex.c ****   if(status == HAL_OK)
 770:Drivers/STM32F3xx_HAL_Driver/Src/stm32f3xx_hal_flash_ex.c ****   { 
 771:Drivers/STM32F3xx_HAL_Driver/Src/stm32f3xx_hal_flash_ex.c ****     /* Clean the error context */
 772:Drivers/STM32F3xx_HAL_Driver/Src/stm32f3xx_hal_flash_ex.c ****     pFlash.ErrorCode = HAL_FLASH_ERROR_NONE;
 773:Drivers/STM32F3xx_HAL_Driver/Src/stm32f3xx_hal_flash_ex.c ****     
 774:Drivers/STM32F3xx_HAL_Driver/Src/stm32f3xx_hal_flash_ex.c ****     /* If the previous operation is completed, proceed to erase the option bytes */
 775:Drivers/STM32F3xx_HAL_Driver/Src/stm32f3xx_hal_flash_ex.c ****     SET_BIT(FLASH->CR, FLASH_CR_OPTER);
 776:Drivers/STM32F3xx_HAL_Driver/Src/stm32f3xx_hal_flash_ex.c ****     SET_BIT(FLASH->CR, FLASH_CR_STRT);
 777:Drivers/STM32F3xx_HAL_Driver/Src/stm32f3xx_hal_flash_ex.c **** 
 778:Drivers/STM32F3xx_HAL_Driver/Src/stm32f3xx_hal_flash_ex.c ****     /* Wait for last operation to be completed */
 779:Drivers/STM32F3xx_HAL_Driver/Src/stm32f3xx_hal_flash_ex.c ****     status = FLASH_WaitForLastOperation((uint32_t)FLASH_TIMEOUT_VALUE);
 780:Drivers/STM32F3xx_HAL_Driver/Src/stm32f3xx_hal_flash_ex.c **** 
 781:Drivers/STM32F3xx_HAL_Driver/Src/stm32f3xx_hal_flash_ex.c ****     /* If the erase operation is completed, disable the OPTER Bit */
 782:Drivers/STM32F3xx_HAL_Driver/Src/stm32f3xx_hal_flash_ex.c ****     CLEAR_BIT(FLASH->CR, FLASH_CR_OPTER);
 783:Drivers/STM32F3xx_HAL_Driver/Src/stm32f3xx_hal_flash_ex.c **** 
 784:Drivers/STM32F3xx_HAL_Driver/Src/stm32f3xx_hal_flash_ex.c ****     if(status == HAL_OK)
 785:Drivers/STM32F3xx_HAL_Driver/Src/stm32f3xx_hal_flash_ex.c ****     {
 786:Drivers/STM32F3xx_HAL_Driver/Src/stm32f3xx_hal_flash_ex.c ****       /* Enable the Option Bytes Programming operation */
 787:Drivers/STM32F3xx_HAL_Driver/Src/stm32f3xx_hal_flash_ex.c ****       SET_BIT(FLASH->CR, FLASH_CR_OPTPG);
 788:Drivers/STM32F3xx_HAL_Driver/Src/stm32f3xx_hal_flash_ex.c ****       
 789:Drivers/STM32F3xx_HAL_Driver/Src/stm32f3xx_hal_flash_ex.c ****       WRITE_REG(OB->RDP, ReadProtectLevel);
 790:Drivers/STM32F3xx_HAL_Driver/Src/stm32f3xx_hal_flash_ex.c ****       
 791:Drivers/STM32F3xx_HAL_Driver/Src/stm32f3xx_hal_flash_ex.c ****       /* Wait for last operation to be completed */
 792:Drivers/STM32F3xx_HAL_Driver/Src/stm32f3xx_hal_flash_ex.c ****       status = FLASH_WaitForLastOperation((uint32_t)FLASH_TIMEOUT_VALUE); 
 793:Drivers/STM32F3xx_HAL_Driver/Src/stm32f3xx_hal_flash_ex.c ****       
ARM GAS  /var/folders/md/lgcc8l7571l9vt9sx0g0zflw0000gn/T//ccWpNrmC.s 			page 16


 794:Drivers/STM32F3xx_HAL_Driver/Src/stm32f3xx_hal_flash_ex.c ****       /* if the program operation is completed, disable the OPTPG Bit */
 795:Drivers/STM32F3xx_HAL_Driver/Src/stm32f3xx_hal_flash_ex.c ****       CLEAR_BIT(FLASH->CR, FLASH_CR_OPTPG);
 796:Drivers/STM32F3xx_HAL_Driver/Src/stm32f3xx_hal_flash_ex.c ****     }
 797:Drivers/STM32F3xx_HAL_Driver/Src/stm32f3xx_hal_flash_ex.c ****   }
 798:Drivers/STM32F3xx_HAL_Driver/Src/stm32f3xx_hal_flash_ex.c ****   
 799:Drivers/STM32F3xx_HAL_Driver/Src/stm32f3xx_hal_flash_ex.c ****   return status;
 800:Drivers/STM32F3xx_HAL_Driver/Src/stm32f3xx_hal_flash_ex.c **** }
 801:Drivers/STM32F3xx_HAL_Driver/Src/stm32f3xx_hal_flash_ex.c **** 
 802:Drivers/STM32F3xx_HAL_Driver/Src/stm32f3xx_hal_flash_ex.c **** /**
 803:Drivers/STM32F3xx_HAL_Driver/Src/stm32f3xx_hal_flash_ex.c ****   * @brief  Program the FLASH User Option Byte.    
 804:Drivers/STM32F3xx_HAL_Driver/Src/stm32f3xx_hal_flash_ex.c ****   * @note   Programming of the OB should be performed only after an erase (otherwise PGERR occurs)
 805:Drivers/STM32F3xx_HAL_Driver/Src/stm32f3xx_hal_flash_ex.c ****   * @param  UserConfig The FLASH User Option Bytes values: IWDG_SW(Bit0), RST_STOP(Bit1), RST_STDBY
 806:Drivers/STM32F3xx_HAL_Driver/Src/stm32f3xx_hal_flash_ex.c ****   *         VDDA_Analog_Monitoring(Bit5) and SRAM_Parity_Enable(Bit6). 
 807:Drivers/STM32F3xx_HAL_Driver/Src/stm32f3xx_hal_flash_ex.c ****   *         And SDADC12_VDD_MONITOR(Bit7) for STM32F373 or STM32F378 . 
 808:Drivers/STM32F3xx_HAL_Driver/Src/stm32f3xx_hal_flash_ex.c ****   * @retval HAL status
 809:Drivers/STM32F3xx_HAL_Driver/Src/stm32f3xx_hal_flash_ex.c ****   */
 810:Drivers/STM32F3xx_HAL_Driver/Src/stm32f3xx_hal_flash_ex.c **** static HAL_StatusTypeDef FLASH_OB_UserConfig(uint8_t UserConfig)
 811:Drivers/STM32F3xx_HAL_Driver/Src/stm32f3xx_hal_flash_ex.c **** {
 812:Drivers/STM32F3xx_HAL_Driver/Src/stm32f3xx_hal_flash_ex.c ****   HAL_StatusTypeDef status = HAL_OK;
 813:Drivers/STM32F3xx_HAL_Driver/Src/stm32f3xx_hal_flash_ex.c **** 
 814:Drivers/STM32F3xx_HAL_Driver/Src/stm32f3xx_hal_flash_ex.c ****   /* Check the parameters */
 815:Drivers/STM32F3xx_HAL_Driver/Src/stm32f3xx_hal_flash_ex.c ****   assert_param(IS_OB_IWDG_SOURCE((UserConfig&OB_IWDG_SW)));
 816:Drivers/STM32F3xx_HAL_Driver/Src/stm32f3xx_hal_flash_ex.c ****   assert_param(IS_OB_STOP_SOURCE((UserConfig&OB_STOP_NO_RST)));
 817:Drivers/STM32F3xx_HAL_Driver/Src/stm32f3xx_hal_flash_ex.c ****   assert_param(IS_OB_STDBY_SOURCE((UserConfig&OB_STDBY_NO_RST)));
 818:Drivers/STM32F3xx_HAL_Driver/Src/stm32f3xx_hal_flash_ex.c ****   assert_param(IS_OB_BOOT1((UserConfig&OB_BOOT1_SET)));
 819:Drivers/STM32F3xx_HAL_Driver/Src/stm32f3xx_hal_flash_ex.c ****   assert_param(IS_OB_VDDA_ANALOG((UserConfig&OB_VDDA_ANALOG_ON)));
 820:Drivers/STM32F3xx_HAL_Driver/Src/stm32f3xx_hal_flash_ex.c ****   assert_param(IS_OB_SRAM_PARITY((UserConfig&OB_SRAM_PARITY_RESET)));
 821:Drivers/STM32F3xx_HAL_Driver/Src/stm32f3xx_hal_flash_ex.c **** #if defined(FLASH_OBR_SDADC12_VDD_MONITOR)
 822:Drivers/STM32F3xx_HAL_Driver/Src/stm32f3xx_hal_flash_ex.c ****   assert_param(IS_OB_SDACD_VDD_MONITOR((UserConfig&OB_SDACD_VDD_MONITOR_SET)));
 823:Drivers/STM32F3xx_HAL_Driver/Src/stm32f3xx_hal_flash_ex.c **** #endif /* FLASH_OBR_SDADC12_VDD_MONITOR */
 824:Drivers/STM32F3xx_HAL_Driver/Src/stm32f3xx_hal_flash_ex.c **** 
 825:Drivers/STM32F3xx_HAL_Driver/Src/stm32f3xx_hal_flash_ex.c ****   /* Wait for last operation to be completed */
 826:Drivers/STM32F3xx_HAL_Driver/Src/stm32f3xx_hal_flash_ex.c ****   status = FLASH_WaitForLastOperation((uint32_t)FLASH_TIMEOUT_VALUE);
 827:Drivers/STM32F3xx_HAL_Driver/Src/stm32f3xx_hal_flash_ex.c ****   
 828:Drivers/STM32F3xx_HAL_Driver/Src/stm32f3xx_hal_flash_ex.c ****   if(status == HAL_OK)
 829:Drivers/STM32F3xx_HAL_Driver/Src/stm32f3xx_hal_flash_ex.c ****   {     
 830:Drivers/STM32F3xx_HAL_Driver/Src/stm32f3xx_hal_flash_ex.c ****     /* Clean the error context */
 831:Drivers/STM32F3xx_HAL_Driver/Src/stm32f3xx_hal_flash_ex.c ****     pFlash.ErrorCode = HAL_FLASH_ERROR_NONE;
 832:Drivers/STM32F3xx_HAL_Driver/Src/stm32f3xx_hal_flash_ex.c **** 
 833:Drivers/STM32F3xx_HAL_Driver/Src/stm32f3xx_hal_flash_ex.c ****     /* Enable the Option Bytes Programming operation */
 834:Drivers/STM32F3xx_HAL_Driver/Src/stm32f3xx_hal_flash_ex.c ****     SET_BIT(FLASH->CR, FLASH_CR_OPTPG); 
 835:Drivers/STM32F3xx_HAL_Driver/Src/stm32f3xx_hal_flash_ex.c ****  
 836:Drivers/STM32F3xx_HAL_Driver/Src/stm32f3xx_hal_flash_ex.c **** #if   defined(FLASH_OBR_SDADC12_VDD_MONITOR)
 837:Drivers/STM32F3xx_HAL_Driver/Src/stm32f3xx_hal_flash_ex.c ****     OB->USER = (UserConfig | 0x08U);
 838:Drivers/STM32F3xx_HAL_Driver/Src/stm32f3xx_hal_flash_ex.c **** #else
 839:Drivers/STM32F3xx_HAL_Driver/Src/stm32f3xx_hal_flash_ex.c ****     OB->USER = (UserConfig | 0x88U);
 840:Drivers/STM32F3xx_HAL_Driver/Src/stm32f3xx_hal_flash_ex.c **** #endif
 841:Drivers/STM32F3xx_HAL_Driver/Src/stm32f3xx_hal_flash_ex.c **** 
 842:Drivers/STM32F3xx_HAL_Driver/Src/stm32f3xx_hal_flash_ex.c ****     /* Wait for last operation to be completed */
 843:Drivers/STM32F3xx_HAL_Driver/Src/stm32f3xx_hal_flash_ex.c ****     status = FLASH_WaitForLastOperation((uint32_t)FLASH_TIMEOUT_VALUE);
 844:Drivers/STM32F3xx_HAL_Driver/Src/stm32f3xx_hal_flash_ex.c **** 
 845:Drivers/STM32F3xx_HAL_Driver/Src/stm32f3xx_hal_flash_ex.c ****     /* if the program operation is completed, disable the OPTPG Bit */
 846:Drivers/STM32F3xx_HAL_Driver/Src/stm32f3xx_hal_flash_ex.c ****     CLEAR_BIT(FLASH->CR, FLASH_CR_OPTPG);
 847:Drivers/STM32F3xx_HAL_Driver/Src/stm32f3xx_hal_flash_ex.c ****   }
 848:Drivers/STM32F3xx_HAL_Driver/Src/stm32f3xx_hal_flash_ex.c ****   
 849:Drivers/STM32F3xx_HAL_Driver/Src/stm32f3xx_hal_flash_ex.c ****   return status; 
 850:Drivers/STM32F3xx_HAL_Driver/Src/stm32f3xx_hal_flash_ex.c **** }
ARM GAS  /var/folders/md/lgcc8l7571l9vt9sx0g0zflw0000gn/T//ccWpNrmC.s 			page 17


 851:Drivers/STM32F3xx_HAL_Driver/Src/stm32f3xx_hal_flash_ex.c **** 
 852:Drivers/STM32F3xx_HAL_Driver/Src/stm32f3xx_hal_flash_ex.c **** /**
 853:Drivers/STM32F3xx_HAL_Driver/Src/stm32f3xx_hal_flash_ex.c ****   * @brief  Programs a half word at a specified Option Byte Data address.
 854:Drivers/STM32F3xx_HAL_Driver/Src/stm32f3xx_hal_flash_ex.c ****   * @note   The function @ref HAL_FLASH_Unlock() should be called before to unlock the FLASH interf
 855:Drivers/STM32F3xx_HAL_Driver/Src/stm32f3xx_hal_flash_ex.c ****   *         The function @ref HAL_FLASH_OB_Unlock() should be called before to unlock the options b
 856:Drivers/STM32F3xx_HAL_Driver/Src/stm32f3xx_hal_flash_ex.c ****   *         The function @ref HAL_FLASH_OB_Launch() should be called after to force the reload of t
 857:Drivers/STM32F3xx_HAL_Driver/Src/stm32f3xx_hal_flash_ex.c ****   *         (system reset will occur)
 858:Drivers/STM32F3xx_HAL_Driver/Src/stm32f3xx_hal_flash_ex.c ****   *         Programming of the OB should be performed only after an erase (otherwise PGERR occurs)
 859:Drivers/STM32F3xx_HAL_Driver/Src/stm32f3xx_hal_flash_ex.c ****   * @param  Address specifies the address to be programmed.
 860:Drivers/STM32F3xx_HAL_Driver/Src/stm32f3xx_hal_flash_ex.c ****   *         This parameter can be 0x1FFFF804 or 0x1FFFF806. 
 861:Drivers/STM32F3xx_HAL_Driver/Src/stm32f3xx_hal_flash_ex.c ****   * @param  Data specifies the data to be programmed.
 862:Drivers/STM32F3xx_HAL_Driver/Src/stm32f3xx_hal_flash_ex.c ****   * @retval HAL status
 863:Drivers/STM32F3xx_HAL_Driver/Src/stm32f3xx_hal_flash_ex.c ****   */
 864:Drivers/STM32F3xx_HAL_Driver/Src/stm32f3xx_hal_flash_ex.c **** static HAL_StatusTypeDef FLASH_OB_ProgramData(uint32_t Address, uint8_t Data)
 865:Drivers/STM32F3xx_HAL_Driver/Src/stm32f3xx_hal_flash_ex.c **** {
 866:Drivers/STM32F3xx_HAL_Driver/Src/stm32f3xx_hal_flash_ex.c ****   HAL_StatusTypeDef status = HAL_ERROR;
 867:Drivers/STM32F3xx_HAL_Driver/Src/stm32f3xx_hal_flash_ex.c ****   
 868:Drivers/STM32F3xx_HAL_Driver/Src/stm32f3xx_hal_flash_ex.c ****   /* Check the parameters */
 869:Drivers/STM32F3xx_HAL_Driver/Src/stm32f3xx_hal_flash_ex.c ****   assert_param(IS_OB_DATA_ADDRESS(Address));
 870:Drivers/STM32F3xx_HAL_Driver/Src/stm32f3xx_hal_flash_ex.c ****   
 871:Drivers/STM32F3xx_HAL_Driver/Src/stm32f3xx_hal_flash_ex.c ****   /* Wait for last operation to be completed */
 872:Drivers/STM32F3xx_HAL_Driver/Src/stm32f3xx_hal_flash_ex.c ****   status = FLASH_WaitForLastOperation((uint32_t)FLASH_TIMEOUT_VALUE);
 873:Drivers/STM32F3xx_HAL_Driver/Src/stm32f3xx_hal_flash_ex.c ****   
 874:Drivers/STM32F3xx_HAL_Driver/Src/stm32f3xx_hal_flash_ex.c ****   if(status == HAL_OK)
 875:Drivers/STM32F3xx_HAL_Driver/Src/stm32f3xx_hal_flash_ex.c ****   {
 876:Drivers/STM32F3xx_HAL_Driver/Src/stm32f3xx_hal_flash_ex.c ****     /* Clean the error context */
 877:Drivers/STM32F3xx_HAL_Driver/Src/stm32f3xx_hal_flash_ex.c ****     pFlash.ErrorCode = HAL_FLASH_ERROR_NONE;
 878:Drivers/STM32F3xx_HAL_Driver/Src/stm32f3xx_hal_flash_ex.c **** 
 879:Drivers/STM32F3xx_HAL_Driver/Src/stm32f3xx_hal_flash_ex.c ****     /* Enables the Option Bytes Programming operation */
 880:Drivers/STM32F3xx_HAL_Driver/Src/stm32f3xx_hal_flash_ex.c ****     SET_BIT(FLASH->CR, FLASH_CR_OPTPG); 
 881:Drivers/STM32F3xx_HAL_Driver/Src/stm32f3xx_hal_flash_ex.c ****     *(__IO uint16_t*)Address = Data;
 882:Drivers/STM32F3xx_HAL_Driver/Src/stm32f3xx_hal_flash_ex.c ****     
 883:Drivers/STM32F3xx_HAL_Driver/Src/stm32f3xx_hal_flash_ex.c ****     /* Wait for last operation to be completed */
 884:Drivers/STM32F3xx_HAL_Driver/Src/stm32f3xx_hal_flash_ex.c ****     status = FLASH_WaitForLastOperation((uint32_t)FLASH_TIMEOUT_VALUE);
 885:Drivers/STM32F3xx_HAL_Driver/Src/stm32f3xx_hal_flash_ex.c ****     
 886:Drivers/STM32F3xx_HAL_Driver/Src/stm32f3xx_hal_flash_ex.c ****     /* If the program operation is completed, disable the OPTPG Bit */
 887:Drivers/STM32F3xx_HAL_Driver/Src/stm32f3xx_hal_flash_ex.c ****     CLEAR_BIT(FLASH->CR, FLASH_CR_OPTPG);
 888:Drivers/STM32F3xx_HAL_Driver/Src/stm32f3xx_hal_flash_ex.c ****   }
 889:Drivers/STM32F3xx_HAL_Driver/Src/stm32f3xx_hal_flash_ex.c ****   /* Return the Option Byte Data Program Status */
 890:Drivers/STM32F3xx_HAL_Driver/Src/stm32f3xx_hal_flash_ex.c ****   return status;
 891:Drivers/STM32F3xx_HAL_Driver/Src/stm32f3xx_hal_flash_ex.c **** }
 892:Drivers/STM32F3xx_HAL_Driver/Src/stm32f3xx_hal_flash_ex.c **** 
 893:Drivers/STM32F3xx_HAL_Driver/Src/stm32f3xx_hal_flash_ex.c **** /**
 894:Drivers/STM32F3xx_HAL_Driver/Src/stm32f3xx_hal_flash_ex.c ****   * @brief  Return the FLASH Write Protection Option Bytes value.
 895:Drivers/STM32F3xx_HAL_Driver/Src/stm32f3xx_hal_flash_ex.c ****   * @retval The FLASH Write Protection Option Bytes value
 896:Drivers/STM32F3xx_HAL_Driver/Src/stm32f3xx_hal_flash_ex.c ****   */
 897:Drivers/STM32F3xx_HAL_Driver/Src/stm32f3xx_hal_flash_ex.c **** static uint32_t FLASH_OB_GetWRP(void)
 898:Drivers/STM32F3xx_HAL_Driver/Src/stm32f3xx_hal_flash_ex.c **** {
  66              		.loc 1 898 1 is_stmt 1 view -0
  67              		.cfi_startproc
  68              		@ args = 0, pretend = 0, frame = 0
  69              		@ frame_needed = 0, uses_anonymous_args = 0
  70              		@ link register save eliminated.
 899:Drivers/STM32F3xx_HAL_Driver/Src/stm32f3xx_hal_flash_ex.c ****   /* Return the FLASH write protection Register value */
 900:Drivers/STM32F3xx_HAL_Driver/Src/stm32f3xx_hal_flash_ex.c ****   return (uint32_t)(READ_REG(FLASH->WRPR));
  71              		.loc 1 900 3 view .LVU7
  72              		.loc 1 900 10 is_stmt 0 view .LVU8
ARM GAS  /var/folders/md/lgcc8l7571l9vt9sx0g0zflw0000gn/T//ccWpNrmC.s 			page 18


  73 0000 014B     		ldr	r3, .L5
  74 0002 186A     		ldr	r0, [r3, #32]
 901:Drivers/STM32F3xx_HAL_Driver/Src/stm32f3xx_hal_flash_ex.c **** }
  75              		.loc 1 901 1 view .LVU9
  76 0004 7047     		bx	lr
  77              	.L6:
  78 0006 00BF     		.align	2
  79              	.L5:
  80 0008 00200240 		.word	1073881088
  81              		.cfi_endproc
  82              	.LFE138:
  84              		.section	.text.FLASH_OB_GetRDP,"ax",%progbits
  85              		.align	1
  86              		.syntax unified
  87              		.thumb
  88              		.thumb_func
  89              		.fpu fpv4-sp-d16
  91              	FLASH_OB_GetRDP:
  92              	.LFB139:
 902:Drivers/STM32F3xx_HAL_Driver/Src/stm32f3xx_hal_flash_ex.c **** 
 903:Drivers/STM32F3xx_HAL_Driver/Src/stm32f3xx_hal_flash_ex.c **** /**
 904:Drivers/STM32F3xx_HAL_Driver/Src/stm32f3xx_hal_flash_ex.c ****   * @brief  Returns the FLASH Read Protection level.
 905:Drivers/STM32F3xx_HAL_Driver/Src/stm32f3xx_hal_flash_ex.c ****   * @retval FLASH RDP level
 906:Drivers/STM32F3xx_HAL_Driver/Src/stm32f3xx_hal_flash_ex.c ****   *         This parameter can be one of the following values:
 907:Drivers/STM32F3xx_HAL_Driver/Src/stm32f3xx_hal_flash_ex.c ****   *            @arg @ref OB_RDP_LEVEL_0 No protection
 908:Drivers/STM32F3xx_HAL_Driver/Src/stm32f3xx_hal_flash_ex.c ****   *            @arg @ref OB_RDP_LEVEL_1 Read protection of the memory
 909:Drivers/STM32F3xx_HAL_Driver/Src/stm32f3xx_hal_flash_ex.c ****   *            @arg @ref OB_RDP_LEVEL_2 Full chip protection
 910:Drivers/STM32F3xx_HAL_Driver/Src/stm32f3xx_hal_flash_ex.c ****   */
 911:Drivers/STM32F3xx_HAL_Driver/Src/stm32f3xx_hal_flash_ex.c **** static uint32_t FLASH_OB_GetRDP(void)
 912:Drivers/STM32F3xx_HAL_Driver/Src/stm32f3xx_hal_flash_ex.c **** {
  93              		.loc 1 912 1 is_stmt 1 view -0
  94              		.cfi_startproc
  95              		@ args = 0, pretend = 0, frame = 0
  96              		@ frame_needed = 0, uses_anonymous_args = 0
  97              		@ link register save eliminated.
 913:Drivers/STM32F3xx_HAL_Driver/Src/stm32f3xx_hal_flash_ex.c ****   uint32_t tmp_reg = 0U;
  98              		.loc 1 913 3 view .LVU11
  99              	.LVL0:
 914:Drivers/STM32F3xx_HAL_Driver/Src/stm32f3xx_hal_flash_ex.c ****   
 915:Drivers/STM32F3xx_HAL_Driver/Src/stm32f3xx_hal_flash_ex.c ****   /* Read RDP level bits */
 916:Drivers/STM32F3xx_HAL_Driver/Src/stm32f3xx_hal_flash_ex.c **** #if defined(FLASH_OBR_RDPRT)
 917:Drivers/STM32F3xx_HAL_Driver/Src/stm32f3xx_hal_flash_ex.c ****   tmp_reg = READ_BIT(FLASH->OBR, FLASH_OBR_RDPRT);
 100              		.loc 1 917 3 view .LVU12
 101              		.loc 1 917 13 is_stmt 0 view .LVU13
 102 0000 064B     		ldr	r3, .L12
 103 0002 DB69     		ldr	r3, [r3, #28]
 104              		.loc 1 917 11 view .LVU14
 105 0004 03F00603 		and	r3, r3, #6
 106              	.LVL1:
 918:Drivers/STM32F3xx_HAL_Driver/Src/stm32f3xx_hal_flash_ex.c **** #endif
 919:Drivers/STM32F3xx_HAL_Driver/Src/stm32f3xx_hal_flash_ex.c **** #if defined(FLASH_OBR_LEVEL1_PROT)
 920:Drivers/STM32F3xx_HAL_Driver/Src/stm32f3xx_hal_flash_ex.c ****   tmp_reg = READ_BIT(FLASH->OBR, (FLASH_OBR_LEVEL1_PROT | FLASH_OBR_LEVEL2_PROT));
 921:Drivers/STM32F3xx_HAL_Driver/Src/stm32f3xx_hal_flash_ex.c **** #endif /* FLASH_OBR_LEVEL1_PROT */
 922:Drivers/STM32F3xx_HAL_Driver/Src/stm32f3xx_hal_flash_ex.c **** 
 923:Drivers/STM32F3xx_HAL_Driver/Src/stm32f3xx_hal_flash_ex.c **** #if defined(FLASH_OBR_RDPRT)
 924:Drivers/STM32F3xx_HAL_Driver/Src/stm32f3xx_hal_flash_ex.c ****   if (tmp_reg == FLASH_OBR_RDPRT_1)
 107              		.loc 1 924 3 is_stmt 1 view .LVU15
ARM GAS  /var/folders/md/lgcc8l7571l9vt9sx0g0zflw0000gn/T//ccWpNrmC.s 			page 19


 108              		.loc 1 924 6 is_stmt 0 view .LVU16
 109 0008 022B     		cmp	r3, #2
 110 000a 05D0     		beq	.L9
 925:Drivers/STM32F3xx_HAL_Driver/Src/stm32f3xx_hal_flash_ex.c **** #endif
 926:Drivers/STM32F3xx_HAL_Driver/Src/stm32f3xx_hal_flash_ex.c **** #if defined(FLASH_OBR_LEVEL1_PROT)
 927:Drivers/STM32F3xx_HAL_Driver/Src/stm32f3xx_hal_flash_ex.c ****   if (tmp_reg == FLASH_OBR_LEVEL1_PROT)
 928:Drivers/STM32F3xx_HAL_Driver/Src/stm32f3xx_hal_flash_ex.c **** #endif /* FLASH_OBR_LEVEL1_PROT */
 929:Drivers/STM32F3xx_HAL_Driver/Src/stm32f3xx_hal_flash_ex.c ****   {
 930:Drivers/STM32F3xx_HAL_Driver/Src/stm32f3xx_hal_flash_ex.c ****     return OB_RDP_LEVEL_1;
 931:Drivers/STM32F3xx_HAL_Driver/Src/stm32f3xx_hal_flash_ex.c ****   }
 932:Drivers/STM32F3xx_HAL_Driver/Src/stm32f3xx_hal_flash_ex.c **** #if   defined(FLASH_OBR_RDPRT)
 933:Drivers/STM32F3xx_HAL_Driver/Src/stm32f3xx_hal_flash_ex.c ****   else if (tmp_reg == FLASH_OBR_RDPRT_2)
 111              		.loc 1 933 8 is_stmt 1 view .LVU17
 112              		.loc 1 933 11 is_stmt 0 view .LVU18
 113 000c 062B     		cmp	r3, #6
 114 000e 01D0     		beq	.L11
 934:Drivers/STM32F3xx_HAL_Driver/Src/stm32f3xx_hal_flash_ex.c **** #elif defined(FLASH_OBR_LEVEL2_PROT)
 935:Drivers/STM32F3xx_HAL_Driver/Src/stm32f3xx_hal_flash_ex.c ****   else if (tmp_reg == FLASH_OBR_LEVEL2_PROT)
 936:Drivers/STM32F3xx_HAL_Driver/Src/stm32f3xx_hal_flash_ex.c **** #endif
 937:Drivers/STM32F3xx_HAL_Driver/Src/stm32f3xx_hal_flash_ex.c ****   {
 938:Drivers/STM32F3xx_HAL_Driver/Src/stm32f3xx_hal_flash_ex.c ****     return OB_RDP_LEVEL_2;
 939:Drivers/STM32F3xx_HAL_Driver/Src/stm32f3xx_hal_flash_ex.c ****   }
 940:Drivers/STM32F3xx_HAL_Driver/Src/stm32f3xx_hal_flash_ex.c ****   else 
 941:Drivers/STM32F3xx_HAL_Driver/Src/stm32f3xx_hal_flash_ex.c ****   {
 942:Drivers/STM32F3xx_HAL_Driver/Src/stm32f3xx_hal_flash_ex.c ****     return OB_RDP_LEVEL_0;
 115              		.loc 1 942 12 view .LVU19
 116 0010 AA20     		movs	r0, #170
 943:Drivers/STM32F3xx_HAL_Driver/Src/stm32f3xx_hal_flash_ex.c ****   }
 944:Drivers/STM32F3xx_HAL_Driver/Src/stm32f3xx_hal_flash_ex.c **** }
 117              		.loc 1 944 1 view .LVU20
 118 0012 7047     		bx	lr
 119              	.L11:
 938:Drivers/STM32F3xx_HAL_Driver/Src/stm32f3xx_hal_flash_ex.c ****   }
 120              		.loc 1 938 12 view .LVU21
 121 0014 CC20     		movs	r0, #204
 122 0016 7047     		bx	lr
 123              	.L9:
 930:Drivers/STM32F3xx_HAL_Driver/Src/stm32f3xx_hal_flash_ex.c ****   }
 124              		.loc 1 930 12 view .LVU22
 125 0018 BB20     		movs	r0, #187
 126 001a 7047     		bx	lr
 127              	.L13:
 128              		.align	2
 129              	.L12:
 130 001c 00200240 		.word	1073881088
 131              		.cfi_endproc
 132              	.LFE139:
 134              		.section	.text.FLASH_OB_RDP_LevelConfig,"ax",%progbits
 135              		.align	1
 136              		.syntax unified
 137              		.thumb
 138              		.thumb_func
 139              		.fpu fpv4-sp-d16
 141              	FLASH_OB_RDP_LevelConfig:
 142              	.LVL2:
 143              	.LFB135:
 760:Drivers/STM32F3xx_HAL_Driver/Src/stm32f3xx_hal_flash_ex.c ****   HAL_StatusTypeDef status = HAL_OK;
ARM GAS  /var/folders/md/lgcc8l7571l9vt9sx0g0zflw0000gn/T//ccWpNrmC.s 			page 20


 144              		.loc 1 760 1 is_stmt 1 view -0
 145              		.cfi_startproc
 146              		@ args = 0, pretend = 0, frame = 0
 147              		@ frame_needed = 0, uses_anonymous_args = 0
 760:Drivers/STM32F3xx_HAL_Driver/Src/stm32f3xx_hal_flash_ex.c ****   HAL_StatusTypeDef status = HAL_OK;
 148              		.loc 1 760 1 is_stmt 0 view .LVU24
 149 0000 38B5     		push	{r3, r4, r5, lr}
 150              	.LCFI0:
 151              		.cfi_def_cfa_offset 16
 152              		.cfi_offset 3, -16
 153              		.cfi_offset 4, -12
 154              		.cfi_offset 5, -8
 155              		.cfi_offset 14, -4
 156 0002 0546     		mov	r5, r0
 761:Drivers/STM32F3xx_HAL_Driver/Src/stm32f3xx_hal_flash_ex.c ****   
 157              		.loc 1 761 3 is_stmt 1 view .LVU25
 158              	.LVL3:
 764:Drivers/STM32F3xx_HAL_Driver/Src/stm32f3xx_hal_flash_ex.c ****   
 159              		.loc 1 764 3 view .LVU26
 767:Drivers/STM32F3xx_HAL_Driver/Src/stm32f3xx_hal_flash_ex.c ****   
 160              		.loc 1 767 3 view .LVU27
 767:Drivers/STM32F3xx_HAL_Driver/Src/stm32f3xx_hal_flash_ex.c ****   
 161              		.loc 1 767 12 is_stmt 0 view .LVU28
 162 0004 4CF25030 		movw	r0, #50000
 163              	.LVL4:
 767:Drivers/STM32F3xx_HAL_Driver/Src/stm32f3xx_hal_flash_ex.c ****   
 164              		.loc 1 767 12 view .LVU29
 165 0008 FFF7FEFF 		bl	FLASH_WaitForLastOperation
 166              	.LVL5:
 769:Drivers/STM32F3xx_HAL_Driver/Src/stm32f3xx_hal_flash_ex.c ****   { 
 167              		.loc 1 769 3 is_stmt 1 view .LVU30
 769:Drivers/STM32F3xx_HAL_Driver/Src/stm32f3xx_hal_flash_ex.c ****   { 
 168              		.loc 1 769 5 is_stmt 0 view .LVU31
 169 000c 00B1     		cbz	r0, .L17
 170              	.L15:
 171              	.LVL6:
 799:Drivers/STM32F3xx_HAL_Driver/Src/stm32f3xx_hal_flash_ex.c **** }
 172              		.loc 1 799 3 is_stmt 1 view .LVU32
 800:Drivers/STM32F3xx_HAL_Driver/Src/stm32f3xx_hal_flash_ex.c **** 
 173              		.loc 1 800 1 is_stmt 0 view .LVU33
 174 000e 38BD     		pop	{r3, r4, r5, pc}
 175              	.LVL7:
 176              	.L17:
 772:Drivers/STM32F3xx_HAL_Driver/Src/stm32f3xx_hal_flash_ex.c ****     
 177              		.loc 1 772 5 is_stmt 1 view .LVU34
 772:Drivers/STM32F3xx_HAL_Driver/Src/stm32f3xx_hal_flash_ex.c ****     
 178              		.loc 1 772 22 is_stmt 0 view .LVU35
 179 0010 124B     		ldr	r3, .L18
 180 0012 0022     		movs	r2, #0
 181 0014 DA61     		str	r2, [r3, #28]
 775:Drivers/STM32F3xx_HAL_Driver/Src/stm32f3xx_hal_flash_ex.c ****     SET_BIT(FLASH->CR, FLASH_CR_STRT);
 182              		.loc 1 775 5 is_stmt 1 view .LVU36
 183 0016 124C     		ldr	r4, .L18+4
 184 0018 2369     		ldr	r3, [r4, #16]
 185 001a 43F02003 		orr	r3, r3, #32
 186 001e 2361     		str	r3, [r4, #16]
 776:Drivers/STM32F3xx_HAL_Driver/Src/stm32f3xx_hal_flash_ex.c **** 
ARM GAS  /var/folders/md/lgcc8l7571l9vt9sx0g0zflw0000gn/T//ccWpNrmC.s 			page 21


 187              		.loc 1 776 5 view .LVU37
 188 0020 2369     		ldr	r3, [r4, #16]
 189 0022 43F04003 		orr	r3, r3, #64
 190 0026 2361     		str	r3, [r4, #16]
 779:Drivers/STM32F3xx_HAL_Driver/Src/stm32f3xx_hal_flash_ex.c **** 
 191              		.loc 1 779 5 view .LVU38
 779:Drivers/STM32F3xx_HAL_Driver/Src/stm32f3xx_hal_flash_ex.c **** 
 192              		.loc 1 779 14 is_stmt 0 view .LVU39
 193 0028 4CF25030 		movw	r0, #50000
 194 002c FFF7FEFF 		bl	FLASH_WaitForLastOperation
 195              	.LVL8:
 782:Drivers/STM32F3xx_HAL_Driver/Src/stm32f3xx_hal_flash_ex.c **** 
 196              		.loc 1 782 5 is_stmt 1 view .LVU40
 197 0030 2369     		ldr	r3, [r4, #16]
 198 0032 23F02003 		bic	r3, r3, #32
 199 0036 2361     		str	r3, [r4, #16]
 784:Drivers/STM32F3xx_HAL_Driver/Src/stm32f3xx_hal_flash_ex.c ****     {
 200              		.loc 1 784 5 view .LVU41
 784:Drivers/STM32F3xx_HAL_Driver/Src/stm32f3xx_hal_flash_ex.c ****     {
 201              		.loc 1 784 7 is_stmt 0 view .LVU42
 202 0038 0028     		cmp	r0, #0
 203 003a E8D1     		bne	.L15
 787:Drivers/STM32F3xx_HAL_Driver/Src/stm32f3xx_hal_flash_ex.c ****       
 204              		.loc 1 787 7 is_stmt 1 view .LVU43
 205 003c 2369     		ldr	r3, [r4, #16]
 206 003e 43F01003 		orr	r3, r3, #16
 207 0042 2361     		str	r3, [r4, #16]
 789:Drivers/STM32F3xx_HAL_Driver/Src/stm32f3xx_hal_flash_ex.c ****       
 208              		.loc 1 789 7 view .LVU44
 209 0044 A8B2     		uxth	r0, r5
 210              	.LVL9:
 789:Drivers/STM32F3xx_HAL_Driver/Src/stm32f3xx_hal_flash_ex.c ****       
 211              		.loc 1 789 7 is_stmt 0 view .LVU45
 212 0046 074B     		ldr	r3, .L18+8
 213 0048 1880     		strh	r0, [r3]	@ movhi
 792:Drivers/STM32F3xx_HAL_Driver/Src/stm32f3xx_hal_flash_ex.c ****       
 214              		.loc 1 792 7 is_stmt 1 view .LVU46
 792:Drivers/STM32F3xx_HAL_Driver/Src/stm32f3xx_hal_flash_ex.c ****       
 215              		.loc 1 792 16 is_stmt 0 view .LVU47
 216 004a 4CF25030 		movw	r0, #50000
 217 004e FFF7FEFF 		bl	FLASH_WaitForLastOperation
 218              	.LVL10:
 795:Drivers/STM32F3xx_HAL_Driver/Src/stm32f3xx_hal_flash_ex.c ****     }
 219              		.loc 1 795 7 is_stmt 1 view .LVU48
 220 0052 2369     		ldr	r3, [r4, #16]
 221 0054 23F01003 		bic	r3, r3, #16
 222 0058 2361     		str	r3, [r4, #16]
 223 005a D8E7     		b	.L15
 224              	.L19:
 225              		.align	2
 226              	.L18:
 227 005c 00000000 		.word	pFlash
 228 0060 00200240 		.word	1073881088
 229 0064 00F8FF1F 		.word	536868864
 230              		.cfi_endproc
 231              	.LFE135:
 233              		.section	.text.FLASH_OB_UserConfig,"ax",%progbits
ARM GAS  /var/folders/md/lgcc8l7571l9vt9sx0g0zflw0000gn/T//ccWpNrmC.s 			page 22


 234              		.align	1
 235              		.syntax unified
 236              		.thumb
 237              		.thumb_func
 238              		.fpu fpv4-sp-d16
 240              	FLASH_OB_UserConfig:
 241              	.LVL11:
 242              	.LFB136:
 811:Drivers/STM32F3xx_HAL_Driver/Src/stm32f3xx_hal_flash_ex.c ****   HAL_StatusTypeDef status = HAL_OK;
 243              		.loc 1 811 1 view -0
 244              		.cfi_startproc
 245              		@ args = 0, pretend = 0, frame = 0
 246              		@ frame_needed = 0, uses_anonymous_args = 0
 811:Drivers/STM32F3xx_HAL_Driver/Src/stm32f3xx_hal_flash_ex.c ****   HAL_StatusTypeDef status = HAL_OK;
 247              		.loc 1 811 1 is_stmt 0 view .LVU50
 248 0000 38B5     		push	{r3, r4, r5, lr}
 249              	.LCFI1:
 250              		.cfi_def_cfa_offset 16
 251              		.cfi_offset 3, -16
 252              		.cfi_offset 4, -12
 253              		.cfi_offset 5, -8
 254              		.cfi_offset 14, -4
 255 0002 0446     		mov	r4, r0
 812:Drivers/STM32F3xx_HAL_Driver/Src/stm32f3xx_hal_flash_ex.c **** 
 256              		.loc 1 812 3 is_stmt 1 view .LVU51
 257              	.LVL12:
 815:Drivers/STM32F3xx_HAL_Driver/Src/stm32f3xx_hal_flash_ex.c ****   assert_param(IS_OB_STOP_SOURCE((UserConfig&OB_STOP_NO_RST)));
 258              		.loc 1 815 3 view .LVU52
 816:Drivers/STM32F3xx_HAL_Driver/Src/stm32f3xx_hal_flash_ex.c ****   assert_param(IS_OB_STDBY_SOURCE((UserConfig&OB_STDBY_NO_RST)));
 259              		.loc 1 816 3 view .LVU53
 817:Drivers/STM32F3xx_HAL_Driver/Src/stm32f3xx_hal_flash_ex.c ****   assert_param(IS_OB_BOOT1((UserConfig&OB_BOOT1_SET)));
 260              		.loc 1 817 3 view .LVU54
 818:Drivers/STM32F3xx_HAL_Driver/Src/stm32f3xx_hal_flash_ex.c ****   assert_param(IS_OB_VDDA_ANALOG((UserConfig&OB_VDDA_ANALOG_ON)));
 261              		.loc 1 818 3 view .LVU55
 819:Drivers/STM32F3xx_HAL_Driver/Src/stm32f3xx_hal_flash_ex.c ****   assert_param(IS_OB_SRAM_PARITY((UserConfig&OB_SRAM_PARITY_RESET)));
 262              		.loc 1 819 3 view .LVU56
 820:Drivers/STM32F3xx_HAL_Driver/Src/stm32f3xx_hal_flash_ex.c **** #if defined(FLASH_OBR_SDADC12_VDD_MONITOR)
 263              		.loc 1 820 3 view .LVU57
 826:Drivers/STM32F3xx_HAL_Driver/Src/stm32f3xx_hal_flash_ex.c ****   
 264              		.loc 1 826 3 view .LVU58
 826:Drivers/STM32F3xx_HAL_Driver/Src/stm32f3xx_hal_flash_ex.c ****   
 265              		.loc 1 826 12 is_stmt 0 view .LVU59
 266 0004 4CF25030 		movw	r0, #50000
 267              	.LVL13:
 826:Drivers/STM32F3xx_HAL_Driver/Src/stm32f3xx_hal_flash_ex.c ****   
 268              		.loc 1 826 12 view .LVU60
 269 0008 FFF7FEFF 		bl	FLASH_WaitForLastOperation
 270              	.LVL14:
 828:Drivers/STM32F3xx_HAL_Driver/Src/stm32f3xx_hal_flash_ex.c ****   {     
 271              		.loc 1 828 3 is_stmt 1 view .LVU61
 828:Drivers/STM32F3xx_HAL_Driver/Src/stm32f3xx_hal_flash_ex.c ****   {     
 272              		.loc 1 828 5 is_stmt 0 view .LVU62
 273 000c 00B1     		cbz	r0, .L23
 274              	.L21:
 275              	.LVL15:
 849:Drivers/STM32F3xx_HAL_Driver/Src/stm32f3xx_hal_flash_ex.c **** }
 276              		.loc 1 849 3 is_stmt 1 view .LVU63
ARM GAS  /var/folders/md/lgcc8l7571l9vt9sx0g0zflw0000gn/T//ccWpNrmC.s 			page 23


 850:Drivers/STM32F3xx_HAL_Driver/Src/stm32f3xx_hal_flash_ex.c **** 
 277              		.loc 1 850 1 is_stmt 0 view .LVU64
 278 000e 38BD     		pop	{r3, r4, r5, pc}
 279              	.LVL16:
 280              	.L23:
 831:Drivers/STM32F3xx_HAL_Driver/Src/stm32f3xx_hal_flash_ex.c **** 
 281              		.loc 1 831 5 is_stmt 1 view .LVU65
 831:Drivers/STM32F3xx_HAL_Driver/Src/stm32f3xx_hal_flash_ex.c **** 
 282              		.loc 1 831 22 is_stmt 0 view .LVU66
 283 0010 0A4B     		ldr	r3, .L24
 284 0012 0022     		movs	r2, #0
 285 0014 DA61     		str	r2, [r3, #28]
 834:Drivers/STM32F3xx_HAL_Driver/Src/stm32f3xx_hal_flash_ex.c ****  
 286              		.loc 1 834 5 is_stmt 1 view .LVU67
 287 0016 0A4D     		ldr	r5, .L24+4
 288 0018 2B69     		ldr	r3, [r5, #16]
 289 001a 43F01003 		orr	r3, r3, #16
 290 001e 2B61     		str	r3, [r5, #16]
 839:Drivers/STM32F3xx_HAL_Driver/Src/stm32f3xx_hal_flash_ex.c **** #endif
 291              		.loc 1 839 5 view .LVU68
 839:Drivers/STM32F3xx_HAL_Driver/Src/stm32f3xx_hal_flash_ex.c **** #endif
 292              		.loc 1 839 14 is_stmt 0 view .LVU69
 293 0020 44F08800 		orr	r0, r4, #136
 294 0024 074B     		ldr	r3, .L24+8
 295 0026 5880     		strh	r0, [r3, #2]	@ movhi
 843:Drivers/STM32F3xx_HAL_Driver/Src/stm32f3xx_hal_flash_ex.c **** 
 296              		.loc 1 843 5 is_stmt 1 view .LVU70
 843:Drivers/STM32F3xx_HAL_Driver/Src/stm32f3xx_hal_flash_ex.c **** 
 297              		.loc 1 843 14 is_stmt 0 view .LVU71
 298 0028 4CF25030 		movw	r0, #50000
 299 002c FFF7FEFF 		bl	FLASH_WaitForLastOperation
 300              	.LVL17:
 846:Drivers/STM32F3xx_HAL_Driver/Src/stm32f3xx_hal_flash_ex.c ****   }
 301              		.loc 1 846 5 is_stmt 1 view .LVU72
 302 0030 2B69     		ldr	r3, [r5, #16]
 303 0032 23F01003 		bic	r3, r3, #16
 304 0036 2B61     		str	r3, [r5, #16]
 305 0038 E9E7     		b	.L21
 306              	.L25:
 307 003a 00BF     		.align	2
 308              	.L24:
 309 003c 00000000 		.word	pFlash
 310 0040 00200240 		.word	1073881088
 311 0044 00F8FF1F 		.word	536868864
 312              		.cfi_endproc
 313              	.LFE136:
 315              		.section	.text.FLASH_OB_ProgramData,"ax",%progbits
 316              		.align	1
 317              		.syntax unified
 318              		.thumb
 319              		.thumb_func
 320              		.fpu fpv4-sp-d16
 322              	FLASH_OB_ProgramData:
 323              	.LVL18:
 324              	.LFB137:
 865:Drivers/STM32F3xx_HAL_Driver/Src/stm32f3xx_hal_flash_ex.c ****   HAL_StatusTypeDef status = HAL_ERROR;
 325              		.loc 1 865 1 view -0
ARM GAS  /var/folders/md/lgcc8l7571l9vt9sx0g0zflw0000gn/T//ccWpNrmC.s 			page 24


 326              		.cfi_startproc
 327              		@ args = 0, pretend = 0, frame = 0
 328              		@ frame_needed = 0, uses_anonymous_args = 0
 865:Drivers/STM32F3xx_HAL_Driver/Src/stm32f3xx_hal_flash_ex.c ****   HAL_StatusTypeDef status = HAL_ERROR;
 329              		.loc 1 865 1 is_stmt 0 view .LVU74
 330 0000 70B5     		push	{r4, r5, r6, lr}
 331              	.LCFI2:
 332              		.cfi_def_cfa_offset 16
 333              		.cfi_offset 4, -16
 334              		.cfi_offset 5, -12
 335              		.cfi_offset 6, -8
 336              		.cfi_offset 14, -4
 337 0002 0546     		mov	r5, r0
 338 0004 0C46     		mov	r4, r1
 866:Drivers/STM32F3xx_HAL_Driver/Src/stm32f3xx_hal_flash_ex.c ****   
 339              		.loc 1 866 3 is_stmt 1 view .LVU75
 340              	.LVL19:
 869:Drivers/STM32F3xx_HAL_Driver/Src/stm32f3xx_hal_flash_ex.c ****   
 341              		.loc 1 869 3 view .LVU76
 872:Drivers/STM32F3xx_HAL_Driver/Src/stm32f3xx_hal_flash_ex.c ****   
 342              		.loc 1 872 3 view .LVU77
 872:Drivers/STM32F3xx_HAL_Driver/Src/stm32f3xx_hal_flash_ex.c ****   
 343              		.loc 1 872 12 is_stmt 0 view .LVU78
 344 0006 4CF25030 		movw	r0, #50000
 345              	.LVL20:
 872:Drivers/STM32F3xx_HAL_Driver/Src/stm32f3xx_hal_flash_ex.c ****   
 346              		.loc 1 872 12 view .LVU79
 347 000a FFF7FEFF 		bl	FLASH_WaitForLastOperation
 348              	.LVL21:
 874:Drivers/STM32F3xx_HAL_Driver/Src/stm32f3xx_hal_flash_ex.c ****   {
 349              		.loc 1 874 3 is_stmt 1 view .LVU80
 874:Drivers/STM32F3xx_HAL_Driver/Src/stm32f3xx_hal_flash_ex.c ****   {
 350              		.loc 1 874 5 is_stmt 0 view .LVU81
 351 000e 00B1     		cbz	r0, .L29
 352              	.L27:
 353              	.LVL22:
 890:Drivers/STM32F3xx_HAL_Driver/Src/stm32f3xx_hal_flash_ex.c **** }
 354              		.loc 1 890 3 is_stmt 1 view .LVU82
 891:Drivers/STM32F3xx_HAL_Driver/Src/stm32f3xx_hal_flash_ex.c **** 
 355              		.loc 1 891 1 is_stmt 0 view .LVU83
 356 0010 70BD     		pop	{r4, r5, r6, pc}
 357              	.LVL23:
 358              	.L29:
 877:Drivers/STM32F3xx_HAL_Driver/Src/stm32f3xx_hal_flash_ex.c **** 
 359              		.loc 1 877 5 is_stmt 1 view .LVU84
 877:Drivers/STM32F3xx_HAL_Driver/Src/stm32f3xx_hal_flash_ex.c **** 
 360              		.loc 1 877 22 is_stmt 0 view .LVU85
 361 0012 094B     		ldr	r3, .L30
 362 0014 0022     		movs	r2, #0
 363 0016 DA61     		str	r2, [r3, #28]
 880:Drivers/STM32F3xx_HAL_Driver/Src/stm32f3xx_hal_flash_ex.c ****     *(__IO uint16_t*)Address = Data;
 364              		.loc 1 880 5 is_stmt 1 view .LVU86
 365 0018 084E     		ldr	r6, .L30+4
 366 001a 3369     		ldr	r3, [r6, #16]
 367 001c 43F01003 		orr	r3, r3, #16
 368 0020 3361     		str	r3, [r6, #16]
 881:Drivers/STM32F3xx_HAL_Driver/Src/stm32f3xx_hal_flash_ex.c ****     
ARM GAS  /var/folders/md/lgcc8l7571l9vt9sx0g0zflw0000gn/T//ccWpNrmC.s 			page 25


 369              		.loc 1 881 5 view .LVU87
 881:Drivers/STM32F3xx_HAL_Driver/Src/stm32f3xx_hal_flash_ex.c ****     
 370              		.loc 1 881 30 is_stmt 0 view .LVU88
 371 0022 A1B2     		uxth	r1, r4
 372 0024 2980     		strh	r1, [r5]	@ movhi
 884:Drivers/STM32F3xx_HAL_Driver/Src/stm32f3xx_hal_flash_ex.c ****     
 373              		.loc 1 884 5 is_stmt 1 view .LVU89
 884:Drivers/STM32F3xx_HAL_Driver/Src/stm32f3xx_hal_flash_ex.c ****     
 374              		.loc 1 884 14 is_stmt 0 view .LVU90
 375 0026 4CF25030 		movw	r0, #50000
 376 002a FFF7FEFF 		bl	FLASH_WaitForLastOperation
 377              	.LVL24:
 887:Drivers/STM32F3xx_HAL_Driver/Src/stm32f3xx_hal_flash_ex.c ****   }
 378              		.loc 1 887 5 is_stmt 1 view .LVU91
 379 002e 3369     		ldr	r3, [r6, #16]
 380 0030 23F01003 		bic	r3, r3, #16
 381 0034 3361     		str	r3, [r6, #16]
 382 0036 EBE7     		b	.L27
 383              	.L31:
 384              		.align	2
 385              	.L30:
 386 0038 00000000 		.word	pFlash
 387 003c 00200240 		.word	1073881088
 388              		.cfi_endproc
 389              	.LFE137:
 391              		.section	.text.FLASH_OB_GetUser,"ax",%progbits
 392              		.align	1
 393              		.syntax unified
 394              		.thumb
 395              		.thumb_func
 396              		.fpu fpv4-sp-d16
 398              	FLASH_OB_GetUser:
 399              	.LFB140:
 945:Drivers/STM32F3xx_HAL_Driver/Src/stm32f3xx_hal_flash_ex.c **** 
 946:Drivers/STM32F3xx_HAL_Driver/Src/stm32f3xx_hal_flash_ex.c **** /**
 947:Drivers/STM32F3xx_HAL_Driver/Src/stm32f3xx_hal_flash_ex.c ****   * @brief  Return the FLASH User Option Byte value.
 948:Drivers/STM32F3xx_HAL_Driver/Src/stm32f3xx_hal_flash_ex.c ****   * @retval  The FLASH User Option Bytes values: IWDG_SW(Bit0), RST_STOP(Bit1), RST_STDBY(Bit2), nB
 949:Drivers/STM32F3xx_HAL_Driver/Src/stm32f3xx_hal_flash_ex.c ****   *         VDDA_Analog_Monitoring(Bit5) and SRAM_Parity_Enable(Bit6). 
 950:Drivers/STM32F3xx_HAL_Driver/Src/stm32f3xx_hal_flash_ex.c ****   *         And SDADC12_VDD_MONITOR(Bit7) for STM32F373 or STM32F378 . 
 951:Drivers/STM32F3xx_HAL_Driver/Src/stm32f3xx_hal_flash_ex.c ****   */
 952:Drivers/STM32F3xx_HAL_Driver/Src/stm32f3xx_hal_flash_ex.c **** static uint8_t FLASH_OB_GetUser(void)
 953:Drivers/STM32F3xx_HAL_Driver/Src/stm32f3xx_hal_flash_ex.c **** {
 400              		.loc 1 953 1 view -0
 401              		.cfi_startproc
 402              		@ args = 0, pretend = 0, frame = 0
 403              		@ frame_needed = 0, uses_anonymous_args = 0
 404              		@ link register save eliminated.
 954:Drivers/STM32F3xx_HAL_Driver/Src/stm32f3xx_hal_flash_ex.c ****   /* Return the User Option Byte */
 955:Drivers/STM32F3xx_HAL_Driver/Src/stm32f3xx_hal_flash_ex.c ****   return (uint8_t)((READ_REG(FLASH->OBR) & FLASH_OBR_USER) >> FLASH_POSITION_IWDGSW_BIT);
 405              		.loc 1 955 3 view .LVU93
 406              		.loc 1 955 21 is_stmt 0 view .LVU94
 407 0000 064B     		ldr	r3, .L33
 408 0002 D869     		ldr	r0, [r3, #28]
 409              		.loc 1 955 42 view .LVU95
 410 0004 00F4EE40 		and	r0, r0, #30464
 411              	.LVL25:
 412              	.LBB8:
ARM GAS  /var/folders/md/lgcc8l7571l9vt9sx0g0zflw0000gn/T//ccWpNrmC.s 			page 26


 413              	.LBI8:
 414              		.file 2 "Drivers/CMSIS/Include/cmsis_gcc.h"
   1:Drivers/CMSIS/Include/cmsis_gcc.h **** /**************************************************************************//**
   2:Drivers/CMSIS/Include/cmsis_gcc.h ****  * @file     cmsis_gcc.h
   3:Drivers/CMSIS/Include/cmsis_gcc.h ****  * @brief    CMSIS Cortex-M Core Function/Instruction Header File
   4:Drivers/CMSIS/Include/cmsis_gcc.h ****  * @version  V4.30
   5:Drivers/CMSIS/Include/cmsis_gcc.h ****  * @date     20. October 2015
   6:Drivers/CMSIS/Include/cmsis_gcc.h ****  ******************************************************************************/
   7:Drivers/CMSIS/Include/cmsis_gcc.h **** /* Copyright (c) 2009 - 2015 ARM LIMITED
   8:Drivers/CMSIS/Include/cmsis_gcc.h **** 
   9:Drivers/CMSIS/Include/cmsis_gcc.h ****    All rights reserved.
  10:Drivers/CMSIS/Include/cmsis_gcc.h ****    Redistribution and use in source and binary forms, with or without
  11:Drivers/CMSIS/Include/cmsis_gcc.h ****    modification, are permitted provided that the following conditions are met:
  12:Drivers/CMSIS/Include/cmsis_gcc.h ****    - Redistributions of source code must retain the above copyright
  13:Drivers/CMSIS/Include/cmsis_gcc.h ****      notice, this list of conditions and the following disclaimer.
  14:Drivers/CMSIS/Include/cmsis_gcc.h ****    - Redistributions in binary form must reproduce the above copyright
  15:Drivers/CMSIS/Include/cmsis_gcc.h ****      notice, this list of conditions and the following disclaimer in the
  16:Drivers/CMSIS/Include/cmsis_gcc.h ****      documentation and/or other materials provided with the distribution.
  17:Drivers/CMSIS/Include/cmsis_gcc.h ****    - Neither the name of ARM nor the names of its contributors may be used
  18:Drivers/CMSIS/Include/cmsis_gcc.h ****      to endorse or promote products derived from this software without
  19:Drivers/CMSIS/Include/cmsis_gcc.h ****      specific prior written permission.
  20:Drivers/CMSIS/Include/cmsis_gcc.h ****    *
  21:Drivers/CMSIS/Include/cmsis_gcc.h ****    THIS SOFTWARE IS PROVIDED BY THE COPYRIGHT HOLDERS AND CONTRIBUTORS "AS IS"
  22:Drivers/CMSIS/Include/cmsis_gcc.h ****    AND ANY EXPRESS OR IMPLIED WARRANTIES, INCLUDING, BUT NOT LIMITED TO, THE
  23:Drivers/CMSIS/Include/cmsis_gcc.h ****    IMPLIED WARRANTIES OF MERCHANTABILITY AND FITNESS FOR A PARTICULAR PURPOSE
  24:Drivers/CMSIS/Include/cmsis_gcc.h ****    ARE DISCLAIMED. IN NO EVENT SHALL COPYRIGHT HOLDERS AND CONTRIBUTORS BE
  25:Drivers/CMSIS/Include/cmsis_gcc.h ****    LIABLE FOR ANY DIRECT, INDIRECT, INCIDENTAL, SPECIAL, EXEMPLARY, OR
  26:Drivers/CMSIS/Include/cmsis_gcc.h ****    CONSEQUENTIAL DAMAGES (INCLUDING, BUT NOT LIMITED TO, PROCUREMENT OF
  27:Drivers/CMSIS/Include/cmsis_gcc.h ****    SUBSTITUTE GOODS OR SERVICES; LOSS OF USE, DATA, OR PROFITS; OR BUSINESS
  28:Drivers/CMSIS/Include/cmsis_gcc.h ****    INTERRUPTION) HOWEVER CAUSED AND ON ANY THEORY OF LIABILITY, WHETHER IN
  29:Drivers/CMSIS/Include/cmsis_gcc.h ****    CONTRACT, STRICT LIABILITY, OR TORT (INCLUDING NEGLIGENCE OR OTHERWISE)
  30:Drivers/CMSIS/Include/cmsis_gcc.h ****    ARISING IN ANY WAY OUT OF THE USE OF THIS SOFTWARE, EVEN IF ADVISED OF THE
  31:Drivers/CMSIS/Include/cmsis_gcc.h ****    POSSIBILITY OF SUCH DAMAGE.
  32:Drivers/CMSIS/Include/cmsis_gcc.h ****    ---------------------------------------------------------------------------*/
  33:Drivers/CMSIS/Include/cmsis_gcc.h **** 
  34:Drivers/CMSIS/Include/cmsis_gcc.h **** 
  35:Drivers/CMSIS/Include/cmsis_gcc.h **** #ifndef __CMSIS_GCC_H
  36:Drivers/CMSIS/Include/cmsis_gcc.h **** #define __CMSIS_GCC_H
  37:Drivers/CMSIS/Include/cmsis_gcc.h **** 
  38:Drivers/CMSIS/Include/cmsis_gcc.h **** /* ignore some GCC warnings */
  39:Drivers/CMSIS/Include/cmsis_gcc.h **** #if defined ( __GNUC__ )
  40:Drivers/CMSIS/Include/cmsis_gcc.h **** #pragma GCC diagnostic push
  41:Drivers/CMSIS/Include/cmsis_gcc.h **** #pragma GCC diagnostic ignored "-Wsign-conversion"
  42:Drivers/CMSIS/Include/cmsis_gcc.h **** #pragma GCC diagnostic ignored "-Wconversion"
  43:Drivers/CMSIS/Include/cmsis_gcc.h **** #pragma GCC diagnostic ignored "-Wunused-parameter"
  44:Drivers/CMSIS/Include/cmsis_gcc.h **** #endif
  45:Drivers/CMSIS/Include/cmsis_gcc.h **** 
  46:Drivers/CMSIS/Include/cmsis_gcc.h **** 
  47:Drivers/CMSIS/Include/cmsis_gcc.h **** /* ###########################  Core Function Access  ########################### */
  48:Drivers/CMSIS/Include/cmsis_gcc.h **** /** \ingroup  CMSIS_Core_FunctionInterface
  49:Drivers/CMSIS/Include/cmsis_gcc.h ****     \defgroup CMSIS_Core_RegAccFunctions CMSIS Core Register Access Functions
  50:Drivers/CMSIS/Include/cmsis_gcc.h ****   @{
  51:Drivers/CMSIS/Include/cmsis_gcc.h ****  */
  52:Drivers/CMSIS/Include/cmsis_gcc.h **** 
  53:Drivers/CMSIS/Include/cmsis_gcc.h **** /**
  54:Drivers/CMSIS/Include/cmsis_gcc.h ****   \brief   Enable IRQ Interrupts
  55:Drivers/CMSIS/Include/cmsis_gcc.h ****   \details Enables IRQ interrupts by clearing the I-bit in the CPSR.
ARM GAS  /var/folders/md/lgcc8l7571l9vt9sx0g0zflw0000gn/T//ccWpNrmC.s 			page 27


  56:Drivers/CMSIS/Include/cmsis_gcc.h ****            Can only be executed in Privileged modes.
  57:Drivers/CMSIS/Include/cmsis_gcc.h ****  */
  58:Drivers/CMSIS/Include/cmsis_gcc.h **** __attribute__( ( always_inline ) ) __STATIC_INLINE void __enable_irq(void)
  59:Drivers/CMSIS/Include/cmsis_gcc.h **** {
  60:Drivers/CMSIS/Include/cmsis_gcc.h ****   __ASM volatile ("cpsie i" : : : "memory");
  61:Drivers/CMSIS/Include/cmsis_gcc.h **** }
  62:Drivers/CMSIS/Include/cmsis_gcc.h **** 
  63:Drivers/CMSIS/Include/cmsis_gcc.h **** 
  64:Drivers/CMSIS/Include/cmsis_gcc.h **** /**
  65:Drivers/CMSIS/Include/cmsis_gcc.h ****   \brief   Disable IRQ Interrupts
  66:Drivers/CMSIS/Include/cmsis_gcc.h ****   \details Disables IRQ interrupts by setting the I-bit in the CPSR.
  67:Drivers/CMSIS/Include/cmsis_gcc.h ****   Can only be executed in Privileged modes.
  68:Drivers/CMSIS/Include/cmsis_gcc.h ****  */
  69:Drivers/CMSIS/Include/cmsis_gcc.h **** __attribute__( ( always_inline ) ) __STATIC_INLINE void __disable_irq(void)
  70:Drivers/CMSIS/Include/cmsis_gcc.h **** {
  71:Drivers/CMSIS/Include/cmsis_gcc.h ****   __ASM volatile ("cpsid i" : : : "memory");
  72:Drivers/CMSIS/Include/cmsis_gcc.h **** }
  73:Drivers/CMSIS/Include/cmsis_gcc.h **** 
  74:Drivers/CMSIS/Include/cmsis_gcc.h **** 
  75:Drivers/CMSIS/Include/cmsis_gcc.h **** /**
  76:Drivers/CMSIS/Include/cmsis_gcc.h ****   \brief   Get Control Register
  77:Drivers/CMSIS/Include/cmsis_gcc.h ****   \details Returns the content of the Control Register.
  78:Drivers/CMSIS/Include/cmsis_gcc.h ****   \return               Control Register value
  79:Drivers/CMSIS/Include/cmsis_gcc.h ****  */
  80:Drivers/CMSIS/Include/cmsis_gcc.h **** __attribute__( ( always_inline ) ) __STATIC_INLINE uint32_t __get_CONTROL(void)
  81:Drivers/CMSIS/Include/cmsis_gcc.h **** {
  82:Drivers/CMSIS/Include/cmsis_gcc.h ****   uint32_t result;
  83:Drivers/CMSIS/Include/cmsis_gcc.h **** 
  84:Drivers/CMSIS/Include/cmsis_gcc.h ****   __ASM volatile ("MRS %0, control" : "=r" (result) );
  85:Drivers/CMSIS/Include/cmsis_gcc.h ****   return(result);
  86:Drivers/CMSIS/Include/cmsis_gcc.h **** }
  87:Drivers/CMSIS/Include/cmsis_gcc.h **** 
  88:Drivers/CMSIS/Include/cmsis_gcc.h **** 
  89:Drivers/CMSIS/Include/cmsis_gcc.h **** /**
  90:Drivers/CMSIS/Include/cmsis_gcc.h ****   \brief   Set Control Register
  91:Drivers/CMSIS/Include/cmsis_gcc.h ****   \details Writes the given value to the Control Register.
  92:Drivers/CMSIS/Include/cmsis_gcc.h ****   \param [in]    control  Control Register value to set
  93:Drivers/CMSIS/Include/cmsis_gcc.h ****  */
  94:Drivers/CMSIS/Include/cmsis_gcc.h **** __attribute__( ( always_inline ) ) __STATIC_INLINE void __set_CONTROL(uint32_t control)
  95:Drivers/CMSIS/Include/cmsis_gcc.h **** {
  96:Drivers/CMSIS/Include/cmsis_gcc.h ****   __ASM volatile ("MSR control, %0" : : "r" (control) : "memory");
  97:Drivers/CMSIS/Include/cmsis_gcc.h **** }
  98:Drivers/CMSIS/Include/cmsis_gcc.h **** 
  99:Drivers/CMSIS/Include/cmsis_gcc.h **** 
 100:Drivers/CMSIS/Include/cmsis_gcc.h **** /**
 101:Drivers/CMSIS/Include/cmsis_gcc.h ****   \brief   Get IPSR Register
 102:Drivers/CMSIS/Include/cmsis_gcc.h ****   \details Returns the content of the IPSR Register.
 103:Drivers/CMSIS/Include/cmsis_gcc.h ****   \return               IPSR Register value
 104:Drivers/CMSIS/Include/cmsis_gcc.h ****  */
 105:Drivers/CMSIS/Include/cmsis_gcc.h **** __attribute__( ( always_inline ) ) __STATIC_INLINE uint32_t __get_IPSR(void)
 106:Drivers/CMSIS/Include/cmsis_gcc.h **** {
 107:Drivers/CMSIS/Include/cmsis_gcc.h ****   uint32_t result;
 108:Drivers/CMSIS/Include/cmsis_gcc.h **** 
 109:Drivers/CMSIS/Include/cmsis_gcc.h ****   __ASM volatile ("MRS %0, ipsr" : "=r" (result) );
 110:Drivers/CMSIS/Include/cmsis_gcc.h ****   return(result);
 111:Drivers/CMSIS/Include/cmsis_gcc.h **** }
 112:Drivers/CMSIS/Include/cmsis_gcc.h **** 
ARM GAS  /var/folders/md/lgcc8l7571l9vt9sx0g0zflw0000gn/T//ccWpNrmC.s 			page 28


 113:Drivers/CMSIS/Include/cmsis_gcc.h **** 
 114:Drivers/CMSIS/Include/cmsis_gcc.h **** /**
 115:Drivers/CMSIS/Include/cmsis_gcc.h ****   \brief   Get APSR Register
 116:Drivers/CMSIS/Include/cmsis_gcc.h ****   \details Returns the content of the APSR Register.
 117:Drivers/CMSIS/Include/cmsis_gcc.h ****   \return               APSR Register value
 118:Drivers/CMSIS/Include/cmsis_gcc.h ****  */
 119:Drivers/CMSIS/Include/cmsis_gcc.h **** __attribute__( ( always_inline ) ) __STATIC_INLINE uint32_t __get_APSR(void)
 120:Drivers/CMSIS/Include/cmsis_gcc.h **** {
 121:Drivers/CMSIS/Include/cmsis_gcc.h ****   uint32_t result;
 122:Drivers/CMSIS/Include/cmsis_gcc.h **** 
 123:Drivers/CMSIS/Include/cmsis_gcc.h ****   __ASM volatile ("MRS %0, apsr" : "=r" (result) );
 124:Drivers/CMSIS/Include/cmsis_gcc.h ****   return(result);
 125:Drivers/CMSIS/Include/cmsis_gcc.h **** }
 126:Drivers/CMSIS/Include/cmsis_gcc.h **** 
 127:Drivers/CMSIS/Include/cmsis_gcc.h **** 
 128:Drivers/CMSIS/Include/cmsis_gcc.h **** /**
 129:Drivers/CMSIS/Include/cmsis_gcc.h ****   \brief   Get xPSR Register
 130:Drivers/CMSIS/Include/cmsis_gcc.h ****   \details Returns the content of the xPSR Register.
 131:Drivers/CMSIS/Include/cmsis_gcc.h **** 
 132:Drivers/CMSIS/Include/cmsis_gcc.h ****     \return               xPSR Register value
 133:Drivers/CMSIS/Include/cmsis_gcc.h ****  */
 134:Drivers/CMSIS/Include/cmsis_gcc.h **** __attribute__( ( always_inline ) ) __STATIC_INLINE uint32_t __get_xPSR(void)
 135:Drivers/CMSIS/Include/cmsis_gcc.h **** {
 136:Drivers/CMSIS/Include/cmsis_gcc.h ****   uint32_t result;
 137:Drivers/CMSIS/Include/cmsis_gcc.h **** 
 138:Drivers/CMSIS/Include/cmsis_gcc.h ****   __ASM volatile ("MRS %0, xpsr" : "=r" (result) );
 139:Drivers/CMSIS/Include/cmsis_gcc.h ****   return(result);
 140:Drivers/CMSIS/Include/cmsis_gcc.h **** }
 141:Drivers/CMSIS/Include/cmsis_gcc.h **** 
 142:Drivers/CMSIS/Include/cmsis_gcc.h **** 
 143:Drivers/CMSIS/Include/cmsis_gcc.h **** /**
 144:Drivers/CMSIS/Include/cmsis_gcc.h ****   \brief   Get Process Stack Pointer
 145:Drivers/CMSIS/Include/cmsis_gcc.h ****   \details Returns the current value of the Process Stack Pointer (PSP).
 146:Drivers/CMSIS/Include/cmsis_gcc.h ****   \return               PSP Register value
 147:Drivers/CMSIS/Include/cmsis_gcc.h ****  */
 148:Drivers/CMSIS/Include/cmsis_gcc.h **** __attribute__( ( always_inline ) ) __STATIC_INLINE uint32_t __get_PSP(void)
 149:Drivers/CMSIS/Include/cmsis_gcc.h **** {
 150:Drivers/CMSIS/Include/cmsis_gcc.h ****   register uint32_t result;
 151:Drivers/CMSIS/Include/cmsis_gcc.h **** 
 152:Drivers/CMSIS/Include/cmsis_gcc.h ****   __ASM volatile ("MRS %0, psp\n"  : "=r" (result) );
 153:Drivers/CMSIS/Include/cmsis_gcc.h ****   return(result);
 154:Drivers/CMSIS/Include/cmsis_gcc.h **** }
 155:Drivers/CMSIS/Include/cmsis_gcc.h **** 
 156:Drivers/CMSIS/Include/cmsis_gcc.h **** 
 157:Drivers/CMSIS/Include/cmsis_gcc.h **** /**
 158:Drivers/CMSIS/Include/cmsis_gcc.h ****   \brief   Set Process Stack Pointer
 159:Drivers/CMSIS/Include/cmsis_gcc.h ****   \details Assigns the given value to the Process Stack Pointer (PSP).
 160:Drivers/CMSIS/Include/cmsis_gcc.h ****   \param [in]    topOfProcStack  Process Stack Pointer value to set
 161:Drivers/CMSIS/Include/cmsis_gcc.h ****  */
 162:Drivers/CMSIS/Include/cmsis_gcc.h **** __attribute__( ( always_inline ) ) __STATIC_INLINE void __set_PSP(uint32_t topOfProcStack)
 163:Drivers/CMSIS/Include/cmsis_gcc.h **** {
 164:Drivers/CMSIS/Include/cmsis_gcc.h ****   __ASM volatile ("MSR psp, %0\n" : : "r" (topOfProcStack) : "sp");
 165:Drivers/CMSIS/Include/cmsis_gcc.h **** }
 166:Drivers/CMSIS/Include/cmsis_gcc.h **** 
 167:Drivers/CMSIS/Include/cmsis_gcc.h **** 
 168:Drivers/CMSIS/Include/cmsis_gcc.h **** /**
 169:Drivers/CMSIS/Include/cmsis_gcc.h ****   \brief   Get Main Stack Pointer
ARM GAS  /var/folders/md/lgcc8l7571l9vt9sx0g0zflw0000gn/T//ccWpNrmC.s 			page 29


 170:Drivers/CMSIS/Include/cmsis_gcc.h ****   \details Returns the current value of the Main Stack Pointer (MSP).
 171:Drivers/CMSIS/Include/cmsis_gcc.h ****   \return               MSP Register value
 172:Drivers/CMSIS/Include/cmsis_gcc.h ****  */
 173:Drivers/CMSIS/Include/cmsis_gcc.h **** __attribute__( ( always_inline ) ) __STATIC_INLINE uint32_t __get_MSP(void)
 174:Drivers/CMSIS/Include/cmsis_gcc.h **** {
 175:Drivers/CMSIS/Include/cmsis_gcc.h ****   register uint32_t result;
 176:Drivers/CMSIS/Include/cmsis_gcc.h **** 
 177:Drivers/CMSIS/Include/cmsis_gcc.h ****   __ASM volatile ("MRS %0, msp\n" : "=r" (result) );
 178:Drivers/CMSIS/Include/cmsis_gcc.h ****   return(result);
 179:Drivers/CMSIS/Include/cmsis_gcc.h **** }
 180:Drivers/CMSIS/Include/cmsis_gcc.h **** 
 181:Drivers/CMSIS/Include/cmsis_gcc.h **** 
 182:Drivers/CMSIS/Include/cmsis_gcc.h **** /**
 183:Drivers/CMSIS/Include/cmsis_gcc.h ****   \brief   Set Main Stack Pointer
 184:Drivers/CMSIS/Include/cmsis_gcc.h ****   \details Assigns the given value to the Main Stack Pointer (MSP).
 185:Drivers/CMSIS/Include/cmsis_gcc.h **** 
 186:Drivers/CMSIS/Include/cmsis_gcc.h ****     \param [in]    topOfMainStack  Main Stack Pointer value to set
 187:Drivers/CMSIS/Include/cmsis_gcc.h ****  */
 188:Drivers/CMSIS/Include/cmsis_gcc.h **** __attribute__( ( always_inline ) ) __STATIC_INLINE void __set_MSP(uint32_t topOfMainStack)
 189:Drivers/CMSIS/Include/cmsis_gcc.h **** {
 190:Drivers/CMSIS/Include/cmsis_gcc.h ****   __ASM volatile ("MSR msp, %0\n" : : "r" (topOfMainStack) : "sp");
 191:Drivers/CMSIS/Include/cmsis_gcc.h **** }
 192:Drivers/CMSIS/Include/cmsis_gcc.h **** 
 193:Drivers/CMSIS/Include/cmsis_gcc.h **** 
 194:Drivers/CMSIS/Include/cmsis_gcc.h **** /**
 195:Drivers/CMSIS/Include/cmsis_gcc.h ****   \brief   Get Priority Mask
 196:Drivers/CMSIS/Include/cmsis_gcc.h ****   \details Returns the current state of the priority mask bit from the Priority Mask Register.
 197:Drivers/CMSIS/Include/cmsis_gcc.h ****   \return               Priority Mask value
 198:Drivers/CMSIS/Include/cmsis_gcc.h ****  */
 199:Drivers/CMSIS/Include/cmsis_gcc.h **** __attribute__( ( always_inline ) ) __STATIC_INLINE uint32_t __get_PRIMASK(void)
 200:Drivers/CMSIS/Include/cmsis_gcc.h **** {
 201:Drivers/CMSIS/Include/cmsis_gcc.h ****   uint32_t result;
 202:Drivers/CMSIS/Include/cmsis_gcc.h **** 
 203:Drivers/CMSIS/Include/cmsis_gcc.h ****   __ASM volatile ("MRS %0, primask" : "=r" (result) );
 204:Drivers/CMSIS/Include/cmsis_gcc.h ****   return(result);
 205:Drivers/CMSIS/Include/cmsis_gcc.h **** }
 206:Drivers/CMSIS/Include/cmsis_gcc.h **** 
 207:Drivers/CMSIS/Include/cmsis_gcc.h **** 
 208:Drivers/CMSIS/Include/cmsis_gcc.h **** /**
 209:Drivers/CMSIS/Include/cmsis_gcc.h ****   \brief   Set Priority Mask
 210:Drivers/CMSIS/Include/cmsis_gcc.h ****   \details Assigns the given value to the Priority Mask Register.
 211:Drivers/CMSIS/Include/cmsis_gcc.h ****   \param [in]    priMask  Priority Mask
 212:Drivers/CMSIS/Include/cmsis_gcc.h ****  */
 213:Drivers/CMSIS/Include/cmsis_gcc.h **** __attribute__( ( always_inline ) ) __STATIC_INLINE void __set_PRIMASK(uint32_t priMask)
 214:Drivers/CMSIS/Include/cmsis_gcc.h **** {
 215:Drivers/CMSIS/Include/cmsis_gcc.h ****   __ASM volatile ("MSR primask, %0" : : "r" (priMask) : "memory");
 216:Drivers/CMSIS/Include/cmsis_gcc.h **** }
 217:Drivers/CMSIS/Include/cmsis_gcc.h **** 
 218:Drivers/CMSIS/Include/cmsis_gcc.h **** 
 219:Drivers/CMSIS/Include/cmsis_gcc.h **** #if       (__CORTEX_M >= 0x03U)
 220:Drivers/CMSIS/Include/cmsis_gcc.h **** 
 221:Drivers/CMSIS/Include/cmsis_gcc.h **** /**
 222:Drivers/CMSIS/Include/cmsis_gcc.h ****   \brief   Enable FIQ
 223:Drivers/CMSIS/Include/cmsis_gcc.h ****   \details Enables FIQ interrupts by clearing the F-bit in the CPSR.
 224:Drivers/CMSIS/Include/cmsis_gcc.h ****            Can only be executed in Privileged modes.
 225:Drivers/CMSIS/Include/cmsis_gcc.h ****  */
 226:Drivers/CMSIS/Include/cmsis_gcc.h **** __attribute__( ( always_inline ) ) __STATIC_INLINE void __enable_fault_irq(void)
ARM GAS  /var/folders/md/lgcc8l7571l9vt9sx0g0zflw0000gn/T//ccWpNrmC.s 			page 30


 227:Drivers/CMSIS/Include/cmsis_gcc.h **** {
 228:Drivers/CMSIS/Include/cmsis_gcc.h ****   __ASM volatile ("cpsie f" : : : "memory");
 229:Drivers/CMSIS/Include/cmsis_gcc.h **** }
 230:Drivers/CMSIS/Include/cmsis_gcc.h **** 
 231:Drivers/CMSIS/Include/cmsis_gcc.h **** 
 232:Drivers/CMSIS/Include/cmsis_gcc.h **** /**
 233:Drivers/CMSIS/Include/cmsis_gcc.h ****   \brief   Disable FIQ
 234:Drivers/CMSIS/Include/cmsis_gcc.h ****   \details Disables FIQ interrupts by setting the F-bit in the CPSR.
 235:Drivers/CMSIS/Include/cmsis_gcc.h ****            Can only be executed in Privileged modes.
 236:Drivers/CMSIS/Include/cmsis_gcc.h ****  */
 237:Drivers/CMSIS/Include/cmsis_gcc.h **** __attribute__( ( always_inline ) ) __STATIC_INLINE void __disable_fault_irq(void)
 238:Drivers/CMSIS/Include/cmsis_gcc.h **** {
 239:Drivers/CMSIS/Include/cmsis_gcc.h ****   __ASM volatile ("cpsid f" : : : "memory");
 240:Drivers/CMSIS/Include/cmsis_gcc.h **** }
 241:Drivers/CMSIS/Include/cmsis_gcc.h **** 
 242:Drivers/CMSIS/Include/cmsis_gcc.h **** 
 243:Drivers/CMSIS/Include/cmsis_gcc.h **** /**
 244:Drivers/CMSIS/Include/cmsis_gcc.h ****   \brief   Get Base Priority
 245:Drivers/CMSIS/Include/cmsis_gcc.h ****   \details Returns the current value of the Base Priority register.
 246:Drivers/CMSIS/Include/cmsis_gcc.h ****   \return               Base Priority register value
 247:Drivers/CMSIS/Include/cmsis_gcc.h ****  */
 248:Drivers/CMSIS/Include/cmsis_gcc.h **** __attribute__( ( always_inline ) ) __STATIC_INLINE uint32_t __get_BASEPRI(void)
 249:Drivers/CMSIS/Include/cmsis_gcc.h **** {
 250:Drivers/CMSIS/Include/cmsis_gcc.h ****   uint32_t result;
 251:Drivers/CMSIS/Include/cmsis_gcc.h **** 
 252:Drivers/CMSIS/Include/cmsis_gcc.h ****   __ASM volatile ("MRS %0, basepri" : "=r" (result) );
 253:Drivers/CMSIS/Include/cmsis_gcc.h ****   return(result);
 254:Drivers/CMSIS/Include/cmsis_gcc.h **** }
 255:Drivers/CMSIS/Include/cmsis_gcc.h **** 
 256:Drivers/CMSIS/Include/cmsis_gcc.h **** 
 257:Drivers/CMSIS/Include/cmsis_gcc.h **** /**
 258:Drivers/CMSIS/Include/cmsis_gcc.h ****   \brief   Set Base Priority
 259:Drivers/CMSIS/Include/cmsis_gcc.h ****   \details Assigns the given value to the Base Priority register.
 260:Drivers/CMSIS/Include/cmsis_gcc.h ****   \param [in]    basePri  Base Priority value to set
 261:Drivers/CMSIS/Include/cmsis_gcc.h ****  */
 262:Drivers/CMSIS/Include/cmsis_gcc.h **** __attribute__( ( always_inline ) ) __STATIC_INLINE void __set_BASEPRI(uint32_t value)
 263:Drivers/CMSIS/Include/cmsis_gcc.h **** {
 264:Drivers/CMSIS/Include/cmsis_gcc.h ****   __ASM volatile ("MSR basepri, %0" : : "r" (value) : "memory");
 265:Drivers/CMSIS/Include/cmsis_gcc.h **** }
 266:Drivers/CMSIS/Include/cmsis_gcc.h **** 
 267:Drivers/CMSIS/Include/cmsis_gcc.h **** 
 268:Drivers/CMSIS/Include/cmsis_gcc.h **** /**
 269:Drivers/CMSIS/Include/cmsis_gcc.h ****   \brief   Set Base Priority with condition
 270:Drivers/CMSIS/Include/cmsis_gcc.h ****   \details Assigns the given value to the Base Priority register only if BASEPRI masking is disable
 271:Drivers/CMSIS/Include/cmsis_gcc.h ****            or the new value increases the BASEPRI priority level.
 272:Drivers/CMSIS/Include/cmsis_gcc.h ****   \param [in]    basePri  Base Priority value to set
 273:Drivers/CMSIS/Include/cmsis_gcc.h ****  */
 274:Drivers/CMSIS/Include/cmsis_gcc.h **** __attribute__( ( always_inline ) ) __STATIC_INLINE void __set_BASEPRI_MAX(uint32_t value)
 275:Drivers/CMSIS/Include/cmsis_gcc.h **** {
 276:Drivers/CMSIS/Include/cmsis_gcc.h ****   __ASM volatile ("MSR basepri_max, %0" : : "r" (value) : "memory");
 277:Drivers/CMSIS/Include/cmsis_gcc.h **** }
 278:Drivers/CMSIS/Include/cmsis_gcc.h **** 
 279:Drivers/CMSIS/Include/cmsis_gcc.h **** 
 280:Drivers/CMSIS/Include/cmsis_gcc.h **** /**
 281:Drivers/CMSIS/Include/cmsis_gcc.h ****   \brief   Get Fault Mask
 282:Drivers/CMSIS/Include/cmsis_gcc.h ****   \details Returns the current value of the Fault Mask register.
 283:Drivers/CMSIS/Include/cmsis_gcc.h ****   \return               Fault Mask register value
ARM GAS  /var/folders/md/lgcc8l7571l9vt9sx0g0zflw0000gn/T//ccWpNrmC.s 			page 31


 284:Drivers/CMSIS/Include/cmsis_gcc.h ****  */
 285:Drivers/CMSIS/Include/cmsis_gcc.h **** __attribute__( ( always_inline ) ) __STATIC_INLINE uint32_t __get_FAULTMASK(void)
 286:Drivers/CMSIS/Include/cmsis_gcc.h **** {
 287:Drivers/CMSIS/Include/cmsis_gcc.h ****   uint32_t result;
 288:Drivers/CMSIS/Include/cmsis_gcc.h **** 
 289:Drivers/CMSIS/Include/cmsis_gcc.h ****   __ASM volatile ("MRS %0, faultmask" : "=r" (result) );
 290:Drivers/CMSIS/Include/cmsis_gcc.h ****   return(result);
 291:Drivers/CMSIS/Include/cmsis_gcc.h **** }
 292:Drivers/CMSIS/Include/cmsis_gcc.h **** 
 293:Drivers/CMSIS/Include/cmsis_gcc.h **** 
 294:Drivers/CMSIS/Include/cmsis_gcc.h **** /**
 295:Drivers/CMSIS/Include/cmsis_gcc.h ****   \brief   Set Fault Mask
 296:Drivers/CMSIS/Include/cmsis_gcc.h ****   \details Assigns the given value to the Fault Mask register.
 297:Drivers/CMSIS/Include/cmsis_gcc.h ****   \param [in]    faultMask  Fault Mask value to set
 298:Drivers/CMSIS/Include/cmsis_gcc.h ****  */
 299:Drivers/CMSIS/Include/cmsis_gcc.h **** __attribute__( ( always_inline ) ) __STATIC_INLINE void __set_FAULTMASK(uint32_t faultMask)
 300:Drivers/CMSIS/Include/cmsis_gcc.h **** {
 301:Drivers/CMSIS/Include/cmsis_gcc.h ****   __ASM volatile ("MSR faultmask, %0" : : "r" (faultMask) : "memory");
 302:Drivers/CMSIS/Include/cmsis_gcc.h **** }
 303:Drivers/CMSIS/Include/cmsis_gcc.h **** 
 304:Drivers/CMSIS/Include/cmsis_gcc.h **** #endif /* (__CORTEX_M >= 0x03U) */
 305:Drivers/CMSIS/Include/cmsis_gcc.h **** 
 306:Drivers/CMSIS/Include/cmsis_gcc.h **** 
 307:Drivers/CMSIS/Include/cmsis_gcc.h **** #if       (__CORTEX_M == 0x04U) || (__CORTEX_M == 0x07U)
 308:Drivers/CMSIS/Include/cmsis_gcc.h **** 
 309:Drivers/CMSIS/Include/cmsis_gcc.h **** /**
 310:Drivers/CMSIS/Include/cmsis_gcc.h ****   \brief   Get FPSCR
 311:Drivers/CMSIS/Include/cmsis_gcc.h ****   \details Returns the current value of the Floating Point Status/Control register.
 312:Drivers/CMSIS/Include/cmsis_gcc.h ****   \return               Floating Point Status/Control register value
 313:Drivers/CMSIS/Include/cmsis_gcc.h ****  */
 314:Drivers/CMSIS/Include/cmsis_gcc.h **** __attribute__( ( always_inline ) ) __STATIC_INLINE uint32_t __get_FPSCR(void)
 315:Drivers/CMSIS/Include/cmsis_gcc.h **** {
 316:Drivers/CMSIS/Include/cmsis_gcc.h **** #if (__FPU_PRESENT == 1U) && (__FPU_USED == 1U)
 317:Drivers/CMSIS/Include/cmsis_gcc.h ****   uint32_t result;
 318:Drivers/CMSIS/Include/cmsis_gcc.h **** 
 319:Drivers/CMSIS/Include/cmsis_gcc.h ****   /* Empty asm statement works as a scheduling barrier */
 320:Drivers/CMSIS/Include/cmsis_gcc.h ****   __ASM volatile ("");
 321:Drivers/CMSIS/Include/cmsis_gcc.h ****   __ASM volatile ("VMRS %0, fpscr" : "=r" (result) );
 322:Drivers/CMSIS/Include/cmsis_gcc.h ****   __ASM volatile ("");
 323:Drivers/CMSIS/Include/cmsis_gcc.h ****   return(result);
 324:Drivers/CMSIS/Include/cmsis_gcc.h **** #else
 325:Drivers/CMSIS/Include/cmsis_gcc.h ****    return(0);
 326:Drivers/CMSIS/Include/cmsis_gcc.h **** #endif
 327:Drivers/CMSIS/Include/cmsis_gcc.h **** }
 328:Drivers/CMSIS/Include/cmsis_gcc.h **** 
 329:Drivers/CMSIS/Include/cmsis_gcc.h **** 
 330:Drivers/CMSIS/Include/cmsis_gcc.h **** /**
 331:Drivers/CMSIS/Include/cmsis_gcc.h ****   \brief   Set FPSCR
 332:Drivers/CMSIS/Include/cmsis_gcc.h ****   \details Assigns the given value to the Floating Point Status/Control register.
 333:Drivers/CMSIS/Include/cmsis_gcc.h ****   \param [in]    fpscr  Floating Point Status/Control value to set
 334:Drivers/CMSIS/Include/cmsis_gcc.h ****  */
 335:Drivers/CMSIS/Include/cmsis_gcc.h **** __attribute__( ( always_inline ) ) __STATIC_INLINE void __set_FPSCR(uint32_t fpscr)
 336:Drivers/CMSIS/Include/cmsis_gcc.h **** {
 337:Drivers/CMSIS/Include/cmsis_gcc.h **** #if (__FPU_PRESENT == 1U) && (__FPU_USED == 1U)
 338:Drivers/CMSIS/Include/cmsis_gcc.h ****   /* Empty asm statement works as a scheduling barrier */
 339:Drivers/CMSIS/Include/cmsis_gcc.h ****   __ASM volatile ("");
 340:Drivers/CMSIS/Include/cmsis_gcc.h ****   __ASM volatile ("VMSR fpscr, %0" : : "r" (fpscr) : "vfpcc");
ARM GAS  /var/folders/md/lgcc8l7571l9vt9sx0g0zflw0000gn/T//ccWpNrmC.s 			page 32


 341:Drivers/CMSIS/Include/cmsis_gcc.h ****   __ASM volatile ("");
 342:Drivers/CMSIS/Include/cmsis_gcc.h **** #endif
 343:Drivers/CMSIS/Include/cmsis_gcc.h **** }
 344:Drivers/CMSIS/Include/cmsis_gcc.h **** 
 345:Drivers/CMSIS/Include/cmsis_gcc.h **** #endif /* (__CORTEX_M == 0x04U) || (__CORTEX_M == 0x07U) */
 346:Drivers/CMSIS/Include/cmsis_gcc.h **** 
 347:Drivers/CMSIS/Include/cmsis_gcc.h **** 
 348:Drivers/CMSIS/Include/cmsis_gcc.h **** 
 349:Drivers/CMSIS/Include/cmsis_gcc.h **** /*@} end of CMSIS_Core_RegAccFunctions */
 350:Drivers/CMSIS/Include/cmsis_gcc.h **** 
 351:Drivers/CMSIS/Include/cmsis_gcc.h **** 
 352:Drivers/CMSIS/Include/cmsis_gcc.h **** /* ##########################  Core Instruction Access  ######################### */
 353:Drivers/CMSIS/Include/cmsis_gcc.h **** /** \defgroup CMSIS_Core_InstructionInterface CMSIS Core Instruction Interface
 354:Drivers/CMSIS/Include/cmsis_gcc.h ****   Access to dedicated instructions
 355:Drivers/CMSIS/Include/cmsis_gcc.h ****   @{
 356:Drivers/CMSIS/Include/cmsis_gcc.h **** */
 357:Drivers/CMSIS/Include/cmsis_gcc.h **** 
 358:Drivers/CMSIS/Include/cmsis_gcc.h **** /* Define macros for porting to both thumb1 and thumb2.
 359:Drivers/CMSIS/Include/cmsis_gcc.h ****  * For thumb1, use low register (r0-r7), specified by constraint "l"
 360:Drivers/CMSIS/Include/cmsis_gcc.h ****  * Otherwise, use general registers, specified by constraint "r" */
 361:Drivers/CMSIS/Include/cmsis_gcc.h **** #if defined (__thumb__) && !defined (__thumb2__)
 362:Drivers/CMSIS/Include/cmsis_gcc.h **** #define __CMSIS_GCC_OUT_REG(r) "=l" (r)
 363:Drivers/CMSIS/Include/cmsis_gcc.h **** #define __CMSIS_GCC_USE_REG(r) "l" (r)
 364:Drivers/CMSIS/Include/cmsis_gcc.h **** #else
 365:Drivers/CMSIS/Include/cmsis_gcc.h **** #define __CMSIS_GCC_OUT_REG(r) "=r" (r)
 366:Drivers/CMSIS/Include/cmsis_gcc.h **** #define __CMSIS_GCC_USE_REG(r) "r" (r)
 367:Drivers/CMSIS/Include/cmsis_gcc.h **** #endif
 368:Drivers/CMSIS/Include/cmsis_gcc.h **** 
 369:Drivers/CMSIS/Include/cmsis_gcc.h **** /**
 370:Drivers/CMSIS/Include/cmsis_gcc.h ****   \brief   No Operation
 371:Drivers/CMSIS/Include/cmsis_gcc.h ****   \details No Operation does nothing. This instruction can be used for code alignment purposes.
 372:Drivers/CMSIS/Include/cmsis_gcc.h ****  */
 373:Drivers/CMSIS/Include/cmsis_gcc.h **** __attribute__((always_inline)) __STATIC_INLINE void __NOP(void)
 374:Drivers/CMSIS/Include/cmsis_gcc.h **** {
 375:Drivers/CMSIS/Include/cmsis_gcc.h ****   __ASM volatile ("nop");
 376:Drivers/CMSIS/Include/cmsis_gcc.h **** }
 377:Drivers/CMSIS/Include/cmsis_gcc.h **** 
 378:Drivers/CMSIS/Include/cmsis_gcc.h **** 
 379:Drivers/CMSIS/Include/cmsis_gcc.h **** /**
 380:Drivers/CMSIS/Include/cmsis_gcc.h ****   \brief   Wait For Interrupt
 381:Drivers/CMSIS/Include/cmsis_gcc.h ****   \details Wait For Interrupt is a hint instruction that suspends execution until one of a number o
 382:Drivers/CMSIS/Include/cmsis_gcc.h ****  */
 383:Drivers/CMSIS/Include/cmsis_gcc.h **** __attribute__((always_inline)) __STATIC_INLINE void __WFI(void)
 384:Drivers/CMSIS/Include/cmsis_gcc.h **** {
 385:Drivers/CMSIS/Include/cmsis_gcc.h ****   __ASM volatile ("wfi");
 386:Drivers/CMSIS/Include/cmsis_gcc.h **** }
 387:Drivers/CMSIS/Include/cmsis_gcc.h **** 
 388:Drivers/CMSIS/Include/cmsis_gcc.h **** 
 389:Drivers/CMSIS/Include/cmsis_gcc.h **** /**
 390:Drivers/CMSIS/Include/cmsis_gcc.h ****   \brief   Wait For Event
 391:Drivers/CMSIS/Include/cmsis_gcc.h ****   \details Wait For Event is a hint instruction that permits the processor to enter
 392:Drivers/CMSIS/Include/cmsis_gcc.h ****     a low-power state until one of a number of events occurs.
 393:Drivers/CMSIS/Include/cmsis_gcc.h ****  */
 394:Drivers/CMSIS/Include/cmsis_gcc.h **** __attribute__((always_inline)) __STATIC_INLINE void __WFE(void)
 395:Drivers/CMSIS/Include/cmsis_gcc.h **** {
 396:Drivers/CMSIS/Include/cmsis_gcc.h ****   __ASM volatile ("wfe");
 397:Drivers/CMSIS/Include/cmsis_gcc.h **** }
ARM GAS  /var/folders/md/lgcc8l7571l9vt9sx0g0zflw0000gn/T//ccWpNrmC.s 			page 33


 398:Drivers/CMSIS/Include/cmsis_gcc.h **** 
 399:Drivers/CMSIS/Include/cmsis_gcc.h **** 
 400:Drivers/CMSIS/Include/cmsis_gcc.h **** /**
 401:Drivers/CMSIS/Include/cmsis_gcc.h ****   \brief   Send Event
 402:Drivers/CMSIS/Include/cmsis_gcc.h ****   \details Send Event is a hint instruction. It causes an event to be signaled to the CPU.
 403:Drivers/CMSIS/Include/cmsis_gcc.h ****  */
 404:Drivers/CMSIS/Include/cmsis_gcc.h **** __attribute__((always_inline)) __STATIC_INLINE void __SEV(void)
 405:Drivers/CMSIS/Include/cmsis_gcc.h **** {
 406:Drivers/CMSIS/Include/cmsis_gcc.h ****   __ASM volatile ("sev");
 407:Drivers/CMSIS/Include/cmsis_gcc.h **** }
 408:Drivers/CMSIS/Include/cmsis_gcc.h **** 
 409:Drivers/CMSIS/Include/cmsis_gcc.h **** 
 410:Drivers/CMSIS/Include/cmsis_gcc.h **** /**
 411:Drivers/CMSIS/Include/cmsis_gcc.h ****   \brief   Instruction Synchronization Barrier
 412:Drivers/CMSIS/Include/cmsis_gcc.h ****   \details Instruction Synchronization Barrier flushes the pipeline in the processor,
 413:Drivers/CMSIS/Include/cmsis_gcc.h ****            so that all instructions following the ISB are fetched from cache or memory,
 414:Drivers/CMSIS/Include/cmsis_gcc.h ****            after the instruction has been completed.
 415:Drivers/CMSIS/Include/cmsis_gcc.h ****  */
 416:Drivers/CMSIS/Include/cmsis_gcc.h **** __attribute__((always_inline)) __STATIC_INLINE void __ISB(void)
 417:Drivers/CMSIS/Include/cmsis_gcc.h **** {
 418:Drivers/CMSIS/Include/cmsis_gcc.h ****   __ASM volatile ("isb 0xF":::"memory");
 419:Drivers/CMSIS/Include/cmsis_gcc.h **** }
 420:Drivers/CMSIS/Include/cmsis_gcc.h **** 
 421:Drivers/CMSIS/Include/cmsis_gcc.h **** 
 422:Drivers/CMSIS/Include/cmsis_gcc.h **** /**
 423:Drivers/CMSIS/Include/cmsis_gcc.h ****   \brief   Data Synchronization Barrier
 424:Drivers/CMSIS/Include/cmsis_gcc.h ****   \details Acts as a special kind of Data Memory Barrier.
 425:Drivers/CMSIS/Include/cmsis_gcc.h ****            It completes when all explicit memory accesses before this instruction complete.
 426:Drivers/CMSIS/Include/cmsis_gcc.h ****  */
 427:Drivers/CMSIS/Include/cmsis_gcc.h **** __attribute__((always_inline)) __STATIC_INLINE void __DSB(void)
 428:Drivers/CMSIS/Include/cmsis_gcc.h **** {
 429:Drivers/CMSIS/Include/cmsis_gcc.h ****   __ASM volatile ("dsb 0xF":::"memory");
 430:Drivers/CMSIS/Include/cmsis_gcc.h **** }
 431:Drivers/CMSIS/Include/cmsis_gcc.h **** 
 432:Drivers/CMSIS/Include/cmsis_gcc.h **** 
 433:Drivers/CMSIS/Include/cmsis_gcc.h **** /**
 434:Drivers/CMSIS/Include/cmsis_gcc.h ****   \brief   Data Memory Barrier
 435:Drivers/CMSIS/Include/cmsis_gcc.h ****   \details Ensures the apparent order of the explicit memory operations before
 436:Drivers/CMSIS/Include/cmsis_gcc.h ****            and after the instruction, without ensuring their completion.
 437:Drivers/CMSIS/Include/cmsis_gcc.h ****  */
 438:Drivers/CMSIS/Include/cmsis_gcc.h **** __attribute__((always_inline)) __STATIC_INLINE void __DMB(void)
 439:Drivers/CMSIS/Include/cmsis_gcc.h **** {
 440:Drivers/CMSIS/Include/cmsis_gcc.h ****   __ASM volatile ("dmb 0xF":::"memory");
 441:Drivers/CMSIS/Include/cmsis_gcc.h **** }
 442:Drivers/CMSIS/Include/cmsis_gcc.h **** 
 443:Drivers/CMSIS/Include/cmsis_gcc.h **** 
 444:Drivers/CMSIS/Include/cmsis_gcc.h **** /**
 445:Drivers/CMSIS/Include/cmsis_gcc.h ****   \brief   Reverse byte order (32 bit)
 446:Drivers/CMSIS/Include/cmsis_gcc.h ****   \details Reverses the byte order in integer value.
 447:Drivers/CMSIS/Include/cmsis_gcc.h ****   \param [in]    value  Value to reverse
 448:Drivers/CMSIS/Include/cmsis_gcc.h ****   \return               Reversed value
 449:Drivers/CMSIS/Include/cmsis_gcc.h ****  */
 450:Drivers/CMSIS/Include/cmsis_gcc.h **** __attribute__((always_inline)) __STATIC_INLINE uint32_t __REV(uint32_t value)
 451:Drivers/CMSIS/Include/cmsis_gcc.h **** {
 452:Drivers/CMSIS/Include/cmsis_gcc.h **** #if (__GNUC__ > 4) || (__GNUC__ == 4 && __GNUC_MINOR__ >= 5)
 453:Drivers/CMSIS/Include/cmsis_gcc.h ****   return __builtin_bswap32(value);
 454:Drivers/CMSIS/Include/cmsis_gcc.h **** #else
ARM GAS  /var/folders/md/lgcc8l7571l9vt9sx0g0zflw0000gn/T//ccWpNrmC.s 			page 34


 455:Drivers/CMSIS/Include/cmsis_gcc.h ****   uint32_t result;
 456:Drivers/CMSIS/Include/cmsis_gcc.h **** 
 457:Drivers/CMSIS/Include/cmsis_gcc.h ****   __ASM volatile ("rev %0, %1" : __CMSIS_GCC_OUT_REG (result) : __CMSIS_GCC_USE_REG (value) );
 458:Drivers/CMSIS/Include/cmsis_gcc.h ****   return(result);
 459:Drivers/CMSIS/Include/cmsis_gcc.h **** #endif
 460:Drivers/CMSIS/Include/cmsis_gcc.h **** }
 461:Drivers/CMSIS/Include/cmsis_gcc.h **** 
 462:Drivers/CMSIS/Include/cmsis_gcc.h **** 
 463:Drivers/CMSIS/Include/cmsis_gcc.h **** /**
 464:Drivers/CMSIS/Include/cmsis_gcc.h ****   \brief   Reverse byte order (16 bit)
 465:Drivers/CMSIS/Include/cmsis_gcc.h ****   \details Reverses the byte order in two unsigned short values.
 466:Drivers/CMSIS/Include/cmsis_gcc.h ****   \param [in]    value  Value to reverse
 467:Drivers/CMSIS/Include/cmsis_gcc.h ****   \return               Reversed value
 468:Drivers/CMSIS/Include/cmsis_gcc.h ****  */
 469:Drivers/CMSIS/Include/cmsis_gcc.h **** __attribute__((always_inline)) __STATIC_INLINE uint32_t __REV16(uint32_t value)
 470:Drivers/CMSIS/Include/cmsis_gcc.h **** {
 471:Drivers/CMSIS/Include/cmsis_gcc.h ****   uint32_t result;
 472:Drivers/CMSIS/Include/cmsis_gcc.h **** 
 473:Drivers/CMSIS/Include/cmsis_gcc.h ****   __ASM volatile ("rev16 %0, %1" : __CMSIS_GCC_OUT_REG (result) : __CMSIS_GCC_USE_REG (value) );
 474:Drivers/CMSIS/Include/cmsis_gcc.h ****   return(result);
 475:Drivers/CMSIS/Include/cmsis_gcc.h **** }
 476:Drivers/CMSIS/Include/cmsis_gcc.h **** 
 477:Drivers/CMSIS/Include/cmsis_gcc.h **** 
 478:Drivers/CMSIS/Include/cmsis_gcc.h **** /**
 479:Drivers/CMSIS/Include/cmsis_gcc.h ****   \brief   Reverse byte order in signed short value
 480:Drivers/CMSIS/Include/cmsis_gcc.h ****   \details Reverses the byte order in a signed short value with sign extension to integer.
 481:Drivers/CMSIS/Include/cmsis_gcc.h ****   \param [in]    value  Value to reverse
 482:Drivers/CMSIS/Include/cmsis_gcc.h ****   \return               Reversed value
 483:Drivers/CMSIS/Include/cmsis_gcc.h ****  */
 484:Drivers/CMSIS/Include/cmsis_gcc.h **** __attribute__((always_inline)) __STATIC_INLINE int32_t __REVSH(int32_t value)
 485:Drivers/CMSIS/Include/cmsis_gcc.h **** {
 486:Drivers/CMSIS/Include/cmsis_gcc.h **** #if (__GNUC__ > 4) || (__GNUC__ == 4 && __GNUC_MINOR__ >= 8)
 487:Drivers/CMSIS/Include/cmsis_gcc.h ****   return (short)__builtin_bswap16(value);
 488:Drivers/CMSIS/Include/cmsis_gcc.h **** #else
 489:Drivers/CMSIS/Include/cmsis_gcc.h ****   int32_t result;
 490:Drivers/CMSIS/Include/cmsis_gcc.h **** 
 491:Drivers/CMSIS/Include/cmsis_gcc.h ****   __ASM volatile ("revsh %0, %1" : __CMSIS_GCC_OUT_REG (result) : __CMSIS_GCC_USE_REG (value) );
 492:Drivers/CMSIS/Include/cmsis_gcc.h ****   return(result);
 493:Drivers/CMSIS/Include/cmsis_gcc.h **** #endif
 494:Drivers/CMSIS/Include/cmsis_gcc.h **** }
 495:Drivers/CMSIS/Include/cmsis_gcc.h **** 
 496:Drivers/CMSIS/Include/cmsis_gcc.h **** 
 497:Drivers/CMSIS/Include/cmsis_gcc.h **** /**
 498:Drivers/CMSIS/Include/cmsis_gcc.h ****   \brief   Rotate Right in unsigned value (32 bit)
 499:Drivers/CMSIS/Include/cmsis_gcc.h ****   \details Rotate Right (immediate) provides the value of the contents of a register rotated by a v
 500:Drivers/CMSIS/Include/cmsis_gcc.h ****   \param [in]    value  Value to rotate
 501:Drivers/CMSIS/Include/cmsis_gcc.h ****   \param [in]    value  Number of Bits to rotate
 502:Drivers/CMSIS/Include/cmsis_gcc.h ****   \return               Rotated value
 503:Drivers/CMSIS/Include/cmsis_gcc.h ****  */
 504:Drivers/CMSIS/Include/cmsis_gcc.h **** __attribute__((always_inline)) __STATIC_INLINE uint32_t __ROR(uint32_t op1, uint32_t op2)
 505:Drivers/CMSIS/Include/cmsis_gcc.h **** {
 506:Drivers/CMSIS/Include/cmsis_gcc.h ****   return (op1 >> op2) | (op1 << (32U - op2));
 507:Drivers/CMSIS/Include/cmsis_gcc.h **** }
 508:Drivers/CMSIS/Include/cmsis_gcc.h **** 
 509:Drivers/CMSIS/Include/cmsis_gcc.h **** 
 510:Drivers/CMSIS/Include/cmsis_gcc.h **** /**
 511:Drivers/CMSIS/Include/cmsis_gcc.h ****   \brief   Breakpoint
ARM GAS  /var/folders/md/lgcc8l7571l9vt9sx0g0zflw0000gn/T//ccWpNrmC.s 			page 35


 512:Drivers/CMSIS/Include/cmsis_gcc.h ****   \details Causes the processor to enter Debug state.
 513:Drivers/CMSIS/Include/cmsis_gcc.h ****            Debug tools can use this to investigate system state when the instruction at a particula
 514:Drivers/CMSIS/Include/cmsis_gcc.h ****   \param [in]    value  is ignored by the processor.
 515:Drivers/CMSIS/Include/cmsis_gcc.h ****                  If required, a debugger can use it to store additional information about the break
 516:Drivers/CMSIS/Include/cmsis_gcc.h ****  */
 517:Drivers/CMSIS/Include/cmsis_gcc.h **** #define __BKPT(value)                       __ASM volatile ("bkpt "#value)
 518:Drivers/CMSIS/Include/cmsis_gcc.h **** 
 519:Drivers/CMSIS/Include/cmsis_gcc.h **** 
 520:Drivers/CMSIS/Include/cmsis_gcc.h **** /**
 521:Drivers/CMSIS/Include/cmsis_gcc.h ****   \brief   Reverse bit order of value
 522:Drivers/CMSIS/Include/cmsis_gcc.h ****   \details Reverses the bit order of the given value.
 523:Drivers/CMSIS/Include/cmsis_gcc.h ****   \param [in]    value  Value to reverse
 524:Drivers/CMSIS/Include/cmsis_gcc.h ****   \return               Reversed value
 525:Drivers/CMSIS/Include/cmsis_gcc.h ****  */
 526:Drivers/CMSIS/Include/cmsis_gcc.h **** __attribute__((always_inline)) __STATIC_INLINE uint32_t __RBIT(uint32_t value)
 415              		.loc 2 526 57 is_stmt 1 view .LVU96
 416              	.LBB9:
 527:Drivers/CMSIS/Include/cmsis_gcc.h **** {
 528:Drivers/CMSIS/Include/cmsis_gcc.h ****   uint32_t result;
 417              		.loc 2 528 3 view .LVU97
 529:Drivers/CMSIS/Include/cmsis_gcc.h **** 
 530:Drivers/CMSIS/Include/cmsis_gcc.h **** #if       (__CORTEX_M >= 0x03U) || (__CORTEX_SC >= 300U)
 531:Drivers/CMSIS/Include/cmsis_gcc.h ****    __ASM volatile ("rbit %0, %1" : "=r" (result) : "r" (value) );
 418              		.loc 2 531 4 view .LVU98
 419 0008 4FF48073 		mov	r3, #256
 420              		.syntax unified
 421              	@ 531 "Drivers/CMSIS/Include/cmsis_gcc.h" 1
 422 000c 93FAA3F3 		rbit r3, r3
 423              	@ 0 "" 2
 424              	.LVL26:
 532:Drivers/CMSIS/Include/cmsis_gcc.h **** #else
 533:Drivers/CMSIS/Include/cmsis_gcc.h ****   int32_t s = 4 /*sizeof(v)*/ * 8 - 1; /* extra shift needed at end */
 534:Drivers/CMSIS/Include/cmsis_gcc.h **** 
 535:Drivers/CMSIS/Include/cmsis_gcc.h ****   result = value;                      /* r will be reversed bits of v; first get LSB of v */
 536:Drivers/CMSIS/Include/cmsis_gcc.h ****   for (value >>= 1U; value; value >>= 1U)
 537:Drivers/CMSIS/Include/cmsis_gcc.h ****   {
 538:Drivers/CMSIS/Include/cmsis_gcc.h ****     result <<= 1U;
 539:Drivers/CMSIS/Include/cmsis_gcc.h ****     result |= value & 1U;
 540:Drivers/CMSIS/Include/cmsis_gcc.h ****     s--;
 541:Drivers/CMSIS/Include/cmsis_gcc.h ****   }
 542:Drivers/CMSIS/Include/cmsis_gcc.h ****   result <<= s;                        /* shift when v's highest bits are zero */
 543:Drivers/CMSIS/Include/cmsis_gcc.h **** #endif
 544:Drivers/CMSIS/Include/cmsis_gcc.h ****   return(result);
 425              		.loc 2 544 3 view .LVU99
 426              		.loc 2 544 3 is_stmt 0 view .LVU100
 427              		.thumb
 428              		.syntax unified
 429              	.LBE9:
 430              	.LBE8:
 431              		.loc 1 955 63 view .LVU101
 432 0010 B3FA83F3 		clz	r3, r3
 433              		.loc 1 955 60 view .LVU102
 434 0014 D840     		lsrs	r0, r0, r3
 956:Drivers/STM32F3xx_HAL_Driver/Src/stm32f3xx_hal_flash_ex.c **** }
 435              		.loc 1 956 1 view .LVU103
 436 0016 C0B2     		uxtb	r0, r0
 437 0018 7047     		bx	lr
ARM GAS  /var/folders/md/lgcc8l7571l9vt9sx0g0zflw0000gn/T//ccWpNrmC.s 			page 36


 438              	.L34:
 439 001a 00BF     		.align	2
 440              	.L33:
 441 001c 00200240 		.word	1073881088
 442              		.cfi_endproc
 443              	.LFE140:
 445              		.section	.text.HAL_FLASHEx_OBErase,"ax",%progbits
 446              		.align	1
 447              		.global	HAL_FLASHEx_OBErase
 448              		.syntax unified
 449              		.thumb
 450              		.thumb_func
 451              		.fpu fpv4-sp-d16
 453              	HAL_FLASHEx_OBErase:
 454              	.LFB128:
 330:Drivers/STM32F3xx_HAL_Driver/Src/stm32f3xx_hal_flash_ex.c ****   uint8_t rdptmp = OB_RDP_LEVEL_0;
 455              		.loc 1 330 1 is_stmt 1 view -0
 456              		.cfi_startproc
 457              		@ args = 0, pretend = 0, frame = 0
 458              		@ frame_needed = 0, uses_anonymous_args = 0
 459 0000 38B5     		push	{r3, r4, r5, lr}
 460              	.LCFI3:
 461              		.cfi_def_cfa_offset 16
 462              		.cfi_offset 3, -16
 463              		.cfi_offset 4, -12
 464              		.cfi_offset 5, -8
 465              		.cfi_offset 14, -4
 331:Drivers/STM32F3xx_HAL_Driver/Src/stm32f3xx_hal_flash_ex.c ****   HAL_StatusTypeDef status = HAL_ERROR;
 466              		.loc 1 331 3 view .LVU105
 467              	.LVL27:
 332:Drivers/STM32F3xx_HAL_Driver/Src/stm32f3xx_hal_flash_ex.c **** 
 468              		.loc 1 332 3 view .LVU106
 335:Drivers/STM32F3xx_HAL_Driver/Src/stm32f3xx_hal_flash_ex.c **** 
 469              		.loc 1 335 3 view .LVU107
 335:Drivers/STM32F3xx_HAL_Driver/Src/stm32f3xx_hal_flash_ex.c **** 
 470              		.loc 1 335 12 is_stmt 0 view .LVU108
 471 0002 FFF7FEFF 		bl	FLASH_OB_GetRDP
 472              	.LVL28:
 335:Drivers/STM32F3xx_HAL_Driver/Src/stm32f3xx_hal_flash_ex.c **** 
 473              		.loc 1 335 10 view .LVU109
 474 0006 C5B2     		uxtb	r5, r0
 475              	.LVL29:
 338:Drivers/STM32F3xx_HAL_Driver/Src/stm32f3xx_hal_flash_ex.c **** 
 476              		.loc 1 338 3 is_stmt 1 view .LVU110
 338:Drivers/STM32F3xx_HAL_Driver/Src/stm32f3xx_hal_flash_ex.c **** 
 477              		.loc 1 338 12 is_stmt 0 view .LVU111
 478 0008 4CF25030 		movw	r0, #50000
 479 000c FFF7FEFF 		bl	FLASH_WaitForLastOperation
 480              	.LVL30:
 340:Drivers/STM32F3xx_HAL_Driver/Src/stm32f3xx_hal_flash_ex.c ****   {
 481              		.loc 1 340 3 is_stmt 1 view .LVU112
 340:Drivers/STM32F3xx_HAL_Driver/Src/stm32f3xx_hal_flash_ex.c ****   {
 482              		.loc 1 340 5 is_stmt 0 view .LVU113
 483 0010 00B1     		cbz	r0, .L38
 484              	.L36:
 485              	.LVL31:
 363:Drivers/STM32F3xx_HAL_Driver/Src/stm32f3xx_hal_flash_ex.c **** }
ARM GAS  /var/folders/md/lgcc8l7571l9vt9sx0g0zflw0000gn/T//ccWpNrmC.s 			page 37


 486              		.loc 1 363 3 is_stmt 1 view .LVU114
 364:Drivers/STM32F3xx_HAL_Driver/Src/stm32f3xx_hal_flash_ex.c **** 
 487              		.loc 1 364 1 is_stmt 0 view .LVU115
 488 0012 38BD     		pop	{r3, r4, r5, pc}
 489              	.LVL32:
 490              	.L38:
 343:Drivers/STM32F3xx_HAL_Driver/Src/stm32f3xx_hal_flash_ex.c **** 
 491              		.loc 1 343 5 is_stmt 1 view .LVU116
 343:Drivers/STM32F3xx_HAL_Driver/Src/stm32f3xx_hal_flash_ex.c **** 
 492              		.loc 1 343 22 is_stmt 0 view .LVU117
 493 0014 0C4B     		ldr	r3, .L39
 494 0016 0022     		movs	r2, #0
 495 0018 DA61     		str	r2, [r3, #28]
 346:Drivers/STM32F3xx_HAL_Driver/Src/stm32f3xx_hal_flash_ex.c ****     SET_BIT(FLASH->CR, FLASH_CR_STRT);
 496              		.loc 1 346 5 is_stmt 1 view .LVU118
 497 001a 0C4C     		ldr	r4, .L39+4
 498 001c 2369     		ldr	r3, [r4, #16]
 499 001e 43F02003 		orr	r3, r3, #32
 500 0022 2361     		str	r3, [r4, #16]
 347:Drivers/STM32F3xx_HAL_Driver/Src/stm32f3xx_hal_flash_ex.c **** 
 501              		.loc 1 347 5 view .LVU119
 502 0024 2369     		ldr	r3, [r4, #16]
 503 0026 43F04003 		orr	r3, r3, #64
 504 002a 2361     		str	r3, [r4, #16]
 350:Drivers/STM32F3xx_HAL_Driver/Src/stm32f3xx_hal_flash_ex.c **** 
 505              		.loc 1 350 5 view .LVU120
 350:Drivers/STM32F3xx_HAL_Driver/Src/stm32f3xx_hal_flash_ex.c **** 
 506              		.loc 1 350 14 is_stmt 0 view .LVU121
 507 002c 4CF25030 		movw	r0, #50000
 508 0030 FFF7FEFF 		bl	FLASH_WaitForLastOperation
 509              	.LVL33:
 353:Drivers/STM32F3xx_HAL_Driver/Src/stm32f3xx_hal_flash_ex.c **** 
 510              		.loc 1 353 5 is_stmt 1 view .LVU122
 511 0034 2369     		ldr	r3, [r4, #16]
 512 0036 23F02003 		bic	r3, r3, #32
 513 003a 2361     		str	r3, [r4, #16]
 355:Drivers/STM32F3xx_HAL_Driver/Src/stm32f3xx_hal_flash_ex.c ****     {
 514              		.loc 1 355 5 view .LVU123
 355:Drivers/STM32F3xx_HAL_Driver/Src/stm32f3xx_hal_flash_ex.c ****     {
 515              		.loc 1 355 7 is_stmt 0 view .LVU124
 516 003c 0028     		cmp	r0, #0
 517 003e E8D1     		bne	.L36
 358:Drivers/STM32F3xx_HAL_Driver/Src/stm32f3xx_hal_flash_ex.c ****     }
 518              		.loc 1 358 7 is_stmt 1 view .LVU125
 358:Drivers/STM32F3xx_HAL_Driver/Src/stm32f3xx_hal_flash_ex.c ****     }
 519              		.loc 1 358 16 is_stmt 0 view .LVU126
 520 0040 2846     		mov	r0, r5
 521              	.LVL34:
 358:Drivers/STM32F3xx_HAL_Driver/Src/stm32f3xx_hal_flash_ex.c ****     }
 522              		.loc 1 358 16 view .LVU127
 523 0042 FFF7FEFF 		bl	FLASH_OB_RDP_LevelConfig
 524              	.LVL35:
 358:Drivers/STM32F3xx_HAL_Driver/Src/stm32f3xx_hal_flash_ex.c ****     }
 525              		.loc 1 358 16 view .LVU128
 526 0046 E4E7     		b	.L36
 527              	.L40:
 528              		.align	2
ARM GAS  /var/folders/md/lgcc8l7571l9vt9sx0g0zflw0000gn/T//ccWpNrmC.s 			page 38


 529              	.L39:
 530 0048 00000000 		.word	pFlash
 531 004c 00200240 		.word	1073881088
 532              		.cfi_endproc
 533              	.LFE128:
 535              		.section	.text.FLASH_OB_EnableWRP,"ax",%progbits
 536              		.align	1
 537              		.syntax unified
 538              		.thumb
 539              		.thumb_func
 540              		.fpu fpv4-sp-d16
 542              	FLASH_OB_EnableWRP:
 543              	.LVL36:
 544              	.LFB133:
 538:Drivers/STM32F3xx_HAL_Driver/Src/stm32f3xx_hal_flash_ex.c ****   HAL_StatusTypeDef status = HAL_OK;
 545              		.loc 1 538 1 is_stmt 1 view -0
 546              		.cfi_startproc
 547              		@ args = 0, pretend = 0, frame = 0
 548              		@ frame_needed = 0, uses_anonymous_args = 0
 538:Drivers/STM32F3xx_HAL_Driver/Src/stm32f3xx_hal_flash_ex.c ****   HAL_StatusTypeDef status = HAL_OK;
 549              		.loc 1 538 1 is_stmt 0 view .LVU130
 550 0000 38B5     		push	{r3, r4, r5, lr}
 551              	.LCFI4:
 552              		.cfi_def_cfa_offset 16
 553              		.cfi_offset 3, -16
 554              		.cfi_offset 4, -12
 555              		.cfi_offset 5, -8
 556              		.cfi_offset 14, -4
 557 0002 0446     		mov	r4, r0
 539:Drivers/STM32F3xx_HAL_Driver/Src/stm32f3xx_hal_flash_ex.c ****   uint16_t WRP0_Data = 0xFFFFU;
 558              		.loc 1 539 3 is_stmt 1 view .LVU131
 559              	.LVL37:
 540:Drivers/STM32F3xx_HAL_Driver/Src/stm32f3xx_hal_flash_ex.c **** #if defined(OB_WRP1_WRP1)
 560              		.loc 1 540 3 view .LVU132
 542:Drivers/STM32F3xx_HAL_Driver/Src/stm32f3xx_hal_flash_ex.c **** #endif /* OB_WRP1_WRP1 */
 561              		.loc 1 542 3 view .LVU133
 552:Drivers/STM32F3xx_HAL_Driver/Src/stm32f3xx_hal_flash_ex.c ****     
 562              		.loc 1 552 3 view .LVU134
 555:Drivers/STM32F3xx_HAL_Driver/Src/stm32f3xx_hal_flash_ex.c ****   
 563              		.loc 1 555 3 view .LVU135
 555:Drivers/STM32F3xx_HAL_Driver/Src/stm32f3xx_hal_flash_ex.c ****   
 564              		.loc 1 555 37 is_stmt 0 view .LVU136
 565 0004 FFF7FEFF 		bl	FLASH_OB_GetWRP
 566              	.LVL38:
 555:Drivers/STM32F3xx_HAL_Driver/Src/stm32f3xx_hal_flash_ex.c ****   
 567              		.loc 1 555 20 view .LVU137
 568 0008 20EA0400 		bic	r0, r0, r4
 569              	.LVL39:
 558:Drivers/STM32F3xx_HAL_Driver/Src/stm32f3xx_hal_flash_ex.c **** #endif /* OB_WRP_PAGES0TO31MASK */
 570              		.loc 1 558 3 is_stmt 1 view .LVU138
 558:Drivers/STM32F3xx_HAL_Driver/Src/stm32f3xx_hal_flash_ex.c **** #endif /* OB_WRP_PAGES0TO31MASK */
 571              		.loc 1 558 13 is_stmt 0 view .LVU139
 572 000c C5B2     		uxtb	r5, r0
 573              	.LVL40:
 562:Drivers/STM32F3xx_HAL_Driver/Src/stm32f3xx_hal_flash_ex.c **** #endif /* OB_WRP_PAGES32TO63MASK */
 574              		.loc 1 562 3 is_stmt 1 view .LVU140
 562:Drivers/STM32F3xx_HAL_Driver/Src/stm32f3xx_hal_flash_ex.c **** #endif /* OB_WRP_PAGES32TO63MASK */
ARM GAS  /var/folders/md/lgcc8l7571l9vt9sx0g0zflw0000gn/T//ccWpNrmC.s 			page 39


 575              		.loc 1 562 13 is_stmt 0 view .LVU141
 576 000e C0F30724 		ubfx	r4, r0, #8, #8
 577              	.LVL41:
 576:Drivers/STM32F3xx_HAL_Driver/Src/stm32f3xx_hal_flash_ex.c **** 
 578              		.loc 1 576 3 is_stmt 1 view .LVU142
 576:Drivers/STM32F3xx_HAL_Driver/Src/stm32f3xx_hal_flash_ex.c **** 
 579              		.loc 1 576 12 is_stmt 0 view .LVU143
 580 0012 4CF25030 		movw	r0, #50000
 581              	.LVL42:
 576:Drivers/STM32F3xx_HAL_Driver/Src/stm32f3xx_hal_flash_ex.c **** 
 582              		.loc 1 576 12 view .LVU144
 583 0016 FFF7FEFF 		bl	FLASH_WaitForLastOperation
 584              	.LVL43:
 578:Drivers/STM32F3xx_HAL_Driver/Src/stm32f3xx_hal_flash_ex.c ****   { 
 585              		.loc 1 578 3 is_stmt 1 view .LVU145
 578:Drivers/STM32F3xx_HAL_Driver/Src/stm32f3xx_hal_flash_ex.c ****   { 
 586              		.loc 1 578 5 is_stmt 0 view .LVU146
 587 001a 00B1     		cbz	r0, .L46
 588              	.LVL44:
 589              	.L42:
 635:Drivers/STM32F3xx_HAL_Driver/Src/stm32f3xx_hal_flash_ex.c **** }
 590              		.loc 1 635 3 is_stmt 1 view .LVU147
 636:Drivers/STM32F3xx_HAL_Driver/Src/stm32f3xx_hal_flash_ex.c **** 
 591              		.loc 1 636 1 is_stmt 0 view .LVU148
 592 001c 38BD     		pop	{r3, r4, r5, pc}
 593              	.LVL45:
 594              	.L46:
 581:Drivers/STM32F3xx_HAL_Driver/Src/stm32f3xx_hal_flash_ex.c **** 
 595              		.loc 1 581 5 is_stmt 1 view .LVU149
 581:Drivers/STM32F3xx_HAL_Driver/Src/stm32f3xx_hal_flash_ex.c **** 
 596              		.loc 1 581 22 is_stmt 0 view .LVU150
 597 001e 144B     		ldr	r3, .L49
 598 0020 0022     		movs	r2, #0
 599 0022 DA61     		str	r2, [r3, #28]
 584:Drivers/STM32F3xx_HAL_Driver/Src/stm32f3xx_hal_flash_ex.c ****     if (status == HAL_OK)  
 600              		.loc 1 584 5 is_stmt 1 view .LVU151
 584:Drivers/STM32F3xx_HAL_Driver/Src/stm32f3xx_hal_flash_ex.c ****     if (status == HAL_OK)  
 601              		.loc 1 584 14 is_stmt 0 view .LVU152
 602 0024 FFF7FEFF 		bl	HAL_FLASHEx_OBErase
 603              	.LVL46:
 585:Drivers/STM32F3xx_HAL_Driver/Src/stm32f3xx_hal_flash_ex.c ****     {
 604              		.loc 1 585 5 is_stmt 1 view .LVU153
 585:Drivers/STM32F3xx_HAL_Driver/Src/stm32f3xx_hal_flash_ex.c ****     {
 605              		.loc 1 585 8 is_stmt 0 view .LVU154
 606 0028 0028     		cmp	r0, #0
 607 002a F7D1     		bne	.L42
 588:Drivers/STM32F3xx_HAL_Driver/Src/stm32f3xx_hal_flash_ex.c **** 
 608              		.loc 1 588 7 is_stmt 1 view .LVU155
 609 002c 114A     		ldr	r2, .L49+4
 610 002e 1369     		ldr	r3, [r2, #16]
 611 0030 43F01003 		orr	r3, r3, #16
 612 0034 1361     		str	r3, [r2, #16]
 591:Drivers/STM32F3xx_HAL_Driver/Src/stm32f3xx_hal_flash_ex.c ****       {
 613              		.loc 1 591 7 view .LVU156
 591:Drivers/STM32F3xx_HAL_Driver/Src/stm32f3xx_hal_flash_ex.c ****       {
 614              		.loc 1 591 9 is_stmt 0 view .LVU157
 615 0036 FF2D     		cmp	r5, #255
ARM GAS  /var/folders/md/lgcc8l7571l9vt9sx0g0zflw0000gn/T//ccWpNrmC.s 			page 40


 616 0038 08D1     		bne	.L47
 617              	.LVL47:
 618              	.L43:
 601:Drivers/STM32F3xx_HAL_Driver/Src/stm32f3xx_hal_flash_ex.c ****       {
 619              		.loc 1 601 7 is_stmt 1 view .LVU158
 601:Drivers/STM32F3xx_HAL_Driver/Src/stm32f3xx_hal_flash_ex.c ****       {
 620              		.loc 1 601 9 is_stmt 0 view .LVU159
 621 003a 08B9     		cbnz	r0, .L44
 601:Drivers/STM32F3xx_HAL_Driver/Src/stm32f3xx_hal_flash_ex.c ****       {
 622              		.loc 1 601 29 discriminator 1 view .LVU160
 623 003c FF2C     		cmp	r4, #255
 624 003e 0ED1     		bne	.L48
 625              	.L44:
 631:Drivers/STM32F3xx_HAL_Driver/Src/stm32f3xx_hal_flash_ex.c ****     }
 626              		.loc 1 631 7 is_stmt 1 view .LVU161
 627 0040 0C4A     		ldr	r2, .L49+4
 628 0042 1369     		ldr	r3, [r2, #16]
 629 0044 23F01003 		bic	r3, r3, #16
 630 0048 1361     		str	r3, [r2, #16]
 631 004a E7E7     		b	.L42
 632              	.LVL48:
 633              	.L47:
 593:Drivers/STM32F3xx_HAL_Driver/Src/stm32f3xx_hal_flash_ex.c ****         
 634              		.loc 1 593 9 view .LVU162
 593:Drivers/STM32F3xx_HAL_Driver/Src/stm32f3xx_hal_flash_ex.c ****         
 635              		.loc 1 593 18 is_stmt 0 view .LVU163
 636 004c 0A4B     		ldr	r3, .L49+8
 637 004e 1A89     		ldrh	r2, [r3, #8]
 638 0050 1540     		ands	r5, r5, r2
 639              	.LVL49:
 593:Drivers/STM32F3xx_HAL_Driver/Src/stm32f3xx_hal_flash_ex.c ****         
 640              		.loc 1 593 18 view .LVU164
 641 0052 1D81     		strh	r5, [r3, #8]	@ movhi
 596:Drivers/STM32F3xx_HAL_Driver/Src/stm32f3xx_hal_flash_ex.c ****       }
 642              		.loc 1 596 9 is_stmt 1 view .LVU165
 596:Drivers/STM32F3xx_HAL_Driver/Src/stm32f3xx_hal_flash_ex.c ****       }
 643              		.loc 1 596 18 is_stmt 0 view .LVU166
 644 0054 4CF25030 		movw	r0, #50000
 645              	.LVL50:
 596:Drivers/STM32F3xx_HAL_Driver/Src/stm32f3xx_hal_flash_ex.c ****       }
 646              		.loc 1 596 18 view .LVU167
 647 0058 FFF7FEFF 		bl	FLASH_WaitForLastOperation
 648              	.LVL51:
 596:Drivers/STM32F3xx_HAL_Driver/Src/stm32f3xx_hal_flash_ex.c ****       }
 649              		.loc 1 596 18 view .LVU168
 650 005c EDE7     		b	.L43
 651              	.L48:
 603:Drivers/STM32F3xx_HAL_Driver/Src/stm32f3xx_hal_flash_ex.c ****         
 652              		.loc 1 603 9 is_stmt 1 view .LVU169
 603:Drivers/STM32F3xx_HAL_Driver/Src/stm32f3xx_hal_flash_ex.c ****         
 653              		.loc 1 603 18 is_stmt 0 view .LVU170
 654 005e 064B     		ldr	r3, .L49+8
 655 0060 5889     		ldrh	r0, [r3, #10]
 656              	.LVL52:
 603:Drivers/STM32F3xx_HAL_Driver/Src/stm32f3xx_hal_flash_ex.c ****         
 657              		.loc 1 603 18 view .LVU171
 658 0062 2040     		ands	r0, r0, r4
ARM GAS  /var/folders/md/lgcc8l7571l9vt9sx0g0zflw0000gn/T//ccWpNrmC.s 			page 41


 659 0064 5881     		strh	r0, [r3, #10]	@ movhi
 606:Drivers/STM32F3xx_HAL_Driver/Src/stm32f3xx_hal_flash_ex.c ****       }
 660              		.loc 1 606 9 is_stmt 1 view .LVU172
 606:Drivers/STM32F3xx_HAL_Driver/Src/stm32f3xx_hal_flash_ex.c ****       }
 661              		.loc 1 606 18 is_stmt 0 view .LVU173
 662 0066 4CF25030 		movw	r0, #50000
 663 006a FFF7FEFF 		bl	FLASH_WaitForLastOperation
 664              	.LVL53:
 606:Drivers/STM32F3xx_HAL_Driver/Src/stm32f3xx_hal_flash_ex.c ****       }
 665              		.loc 1 606 18 view .LVU174
 666 006e E7E7     		b	.L44
 667              	.L50:
 668              		.align	2
 669              	.L49:
 670 0070 00000000 		.word	pFlash
 671 0074 00200240 		.word	1073881088
 672 0078 00F8FF1F 		.word	536868864
 673              		.cfi_endproc
 674              	.LFE133:
 676              		.section	.text.FLASH_OB_DisableWRP,"ax",%progbits
 677              		.align	1
 678              		.syntax unified
 679              		.thumb
 680              		.thumb_func
 681              		.fpu fpv4-sp-d16
 683              	FLASH_OB_DisableWRP:
 684              	.LVL54:
 685              	.LFB134:
 650:Drivers/STM32F3xx_HAL_Driver/Src/stm32f3xx_hal_flash_ex.c ****   HAL_StatusTypeDef status = HAL_OK;
 686              		.loc 1 650 1 is_stmt 1 view -0
 687              		.cfi_startproc
 688              		@ args = 0, pretend = 0, frame = 0
 689              		@ frame_needed = 0, uses_anonymous_args = 0
 650:Drivers/STM32F3xx_HAL_Driver/Src/stm32f3xx_hal_flash_ex.c ****   HAL_StatusTypeDef status = HAL_OK;
 690              		.loc 1 650 1 is_stmt 0 view .LVU176
 691 0000 38B5     		push	{r3, r4, r5, lr}
 692              	.LCFI5:
 693              		.cfi_def_cfa_offset 16
 694              		.cfi_offset 3, -16
 695              		.cfi_offset 4, -12
 696              		.cfi_offset 5, -8
 697              		.cfi_offset 14, -4
 698 0002 0446     		mov	r4, r0
 651:Drivers/STM32F3xx_HAL_Driver/Src/stm32f3xx_hal_flash_ex.c ****   uint16_t WRP0_Data = 0xFFFFU;
 699              		.loc 1 651 3 is_stmt 1 view .LVU177
 700              	.LVL55:
 652:Drivers/STM32F3xx_HAL_Driver/Src/stm32f3xx_hal_flash_ex.c **** #if defined(OB_WRP1_WRP1)
 701              		.loc 1 652 3 view .LVU178
 654:Drivers/STM32F3xx_HAL_Driver/Src/stm32f3xx_hal_flash_ex.c **** #endif /* OB_WRP1_WRP1 */
 702              		.loc 1 654 3 view .LVU179
 664:Drivers/STM32F3xx_HAL_Driver/Src/stm32f3xx_hal_flash_ex.c **** 
 703              		.loc 1 664 3 view .LVU180
 667:Drivers/STM32F3xx_HAL_Driver/Src/stm32f3xx_hal_flash_ex.c **** 
 704              		.loc 1 667 3 view .LVU181
 667:Drivers/STM32F3xx_HAL_Driver/Src/stm32f3xx_hal_flash_ex.c **** 
 705              		.loc 1 667 23 is_stmt 0 view .LVU182
 706 0004 FFF7FEFF 		bl	FLASH_OB_GetWRP
ARM GAS  /var/folders/md/lgcc8l7571l9vt9sx0g0zflw0000gn/T//ccWpNrmC.s 			page 42


 707              	.LVL56:
 667:Drivers/STM32F3xx_HAL_Driver/Src/stm32f3xx_hal_flash_ex.c **** 
 708              		.loc 1 667 20 view .LVU183
 709 0008 2043     		orrs	r0, r0, r4
 710              	.LVL57:
 670:Drivers/STM32F3xx_HAL_Driver/Src/stm32f3xx_hal_flash_ex.c **** #endif /* OB_WRP_PAGES0TO31MASK */
 711              		.loc 1 670 3 is_stmt 1 view .LVU184
 670:Drivers/STM32F3xx_HAL_Driver/Src/stm32f3xx_hal_flash_ex.c **** #endif /* OB_WRP_PAGES0TO31MASK */
 712              		.loc 1 670 13 is_stmt 0 view .LVU185
 713 000a C5B2     		uxtb	r5, r0
 714              	.LVL58:
 674:Drivers/STM32F3xx_HAL_Driver/Src/stm32f3xx_hal_flash_ex.c **** #endif /* OB_WRP_PAGES32TO63MASK */
 715              		.loc 1 674 3 is_stmt 1 view .LVU186
 674:Drivers/STM32F3xx_HAL_Driver/Src/stm32f3xx_hal_flash_ex.c **** #endif /* OB_WRP_PAGES32TO63MASK */
 716              		.loc 1 674 13 is_stmt 0 view .LVU187
 717 000c C0F30724 		ubfx	r4, r0, #8, #8
 718              	.LVL59:
 689:Drivers/STM32F3xx_HAL_Driver/Src/stm32f3xx_hal_flash_ex.c **** 
 719              		.loc 1 689 3 is_stmt 1 view .LVU188
 689:Drivers/STM32F3xx_HAL_Driver/Src/stm32f3xx_hal_flash_ex.c **** 
 720              		.loc 1 689 12 is_stmt 0 view .LVU189
 721 0010 4CF25030 		movw	r0, #50000
 722              	.LVL60:
 689:Drivers/STM32F3xx_HAL_Driver/Src/stm32f3xx_hal_flash_ex.c **** 
 723              		.loc 1 689 12 view .LVU190
 724 0014 FFF7FEFF 		bl	FLASH_WaitForLastOperation
 725              	.LVL61:
 691:Drivers/STM32F3xx_HAL_Driver/Src/stm32f3xx_hal_flash_ex.c ****   { 
 726              		.loc 1 691 3 is_stmt 1 view .LVU191
 691:Drivers/STM32F3xx_HAL_Driver/Src/stm32f3xx_hal_flash_ex.c ****   { 
 727              		.loc 1 691 5 is_stmt 0 view .LVU192
 728 0018 00B1     		cbz	r0, .L56
 729              	.LVL62:
 730              	.L52:
 746:Drivers/STM32F3xx_HAL_Driver/Src/stm32f3xx_hal_flash_ex.c **** }
 731              		.loc 1 746 3 is_stmt 1 view .LVU193
 747:Drivers/STM32F3xx_HAL_Driver/Src/stm32f3xx_hal_flash_ex.c **** 
 732              		.loc 1 747 1 is_stmt 0 view .LVU194
 733 001a 38BD     		pop	{r3, r4, r5, pc}
 734              	.LVL63:
 735              	.L56:
 694:Drivers/STM32F3xx_HAL_Driver/Src/stm32f3xx_hal_flash_ex.c **** 
 736              		.loc 1 694 5 is_stmt 1 view .LVU195
 694:Drivers/STM32F3xx_HAL_Driver/Src/stm32f3xx_hal_flash_ex.c **** 
 737              		.loc 1 694 22 is_stmt 0 view .LVU196
 738 001c 154B     		ldr	r3, .L59
 739 001e 0022     		movs	r2, #0
 740 0020 DA61     		str	r2, [r3, #28]
 697:Drivers/STM32F3xx_HAL_Driver/Src/stm32f3xx_hal_flash_ex.c ****     if (status == HAL_OK)  
 741              		.loc 1 697 5 is_stmt 1 view .LVU197
 697:Drivers/STM32F3xx_HAL_Driver/Src/stm32f3xx_hal_flash_ex.c ****     if (status == HAL_OK)  
 742              		.loc 1 697 14 is_stmt 0 view .LVU198
 743 0022 FFF7FEFF 		bl	HAL_FLASHEx_OBErase
 744              	.LVL64:
 698:Drivers/STM32F3xx_HAL_Driver/Src/stm32f3xx_hal_flash_ex.c ****     {
 745              		.loc 1 698 5 is_stmt 1 view .LVU199
 698:Drivers/STM32F3xx_HAL_Driver/Src/stm32f3xx_hal_flash_ex.c ****     {
ARM GAS  /var/folders/md/lgcc8l7571l9vt9sx0g0zflw0000gn/T//ccWpNrmC.s 			page 43


 746              		.loc 1 698 8 is_stmt 0 view .LVU200
 747 0026 0028     		cmp	r0, #0
 748 0028 F7D1     		bne	.L52
 700:Drivers/STM32F3xx_HAL_Driver/Src/stm32f3xx_hal_flash_ex.c **** 
 749              		.loc 1 700 7 is_stmt 1 view .LVU201
 750 002a 134A     		ldr	r2, .L59+4
 751 002c 1369     		ldr	r3, [r2, #16]
 752 002e 43F01003 		orr	r3, r3, #16
 753 0032 1361     		str	r3, [r2, #16]
 703:Drivers/STM32F3xx_HAL_Driver/Src/stm32f3xx_hal_flash_ex.c ****       {
 754              		.loc 1 703 7 view .LVU202
 703:Drivers/STM32F3xx_HAL_Driver/Src/stm32f3xx_hal_flash_ex.c ****       {
 755              		.loc 1 703 9 is_stmt 0 view .LVU203
 756 0034 FF2D     		cmp	r5, #255
 757 0036 08D1     		bne	.L57
 758              	.LVL65:
 759              	.L53:
 713:Drivers/STM32F3xx_HAL_Driver/Src/stm32f3xx_hal_flash_ex.c ****       {
 760              		.loc 1 713 7 is_stmt 1 view .LVU204
 713:Drivers/STM32F3xx_HAL_Driver/Src/stm32f3xx_hal_flash_ex.c ****       {
 761              		.loc 1 713 9 is_stmt 0 view .LVU205
 762 0038 08B9     		cbnz	r0, .L54
 713:Drivers/STM32F3xx_HAL_Driver/Src/stm32f3xx_hal_flash_ex.c ****       {
 763              		.loc 1 713 29 discriminator 1 view .LVU206
 764 003a FF2C     		cmp	r4, #255
 765 003c 0FD1     		bne	.L58
 766              	.L54:
 743:Drivers/STM32F3xx_HAL_Driver/Src/stm32f3xx_hal_flash_ex.c ****     }
 767              		.loc 1 743 7 is_stmt 1 view .LVU207
 768 003e 0E4A     		ldr	r2, .L59+4
 769 0040 1369     		ldr	r3, [r2, #16]
 770 0042 23F01003 		bic	r3, r3, #16
 771 0046 1361     		str	r3, [r2, #16]
 772 0048 E7E7     		b	.L52
 773              	.LVL66:
 774              	.L57:
 705:Drivers/STM32F3xx_HAL_Driver/Src/stm32f3xx_hal_flash_ex.c ****         
 775              		.loc 1 705 9 view .LVU208
 705:Drivers/STM32F3xx_HAL_Driver/Src/stm32f3xx_hal_flash_ex.c ****         
 776              		.loc 1 705 18 is_stmt 0 view .LVU209
 777 004a 0C4A     		ldr	r2, .L59+8
 778 004c 1389     		ldrh	r3, [r2, #8]
 779 004e 9BB2     		uxth	r3, r3
 780 0050 1D43     		orrs	r5, r5, r3
 781              	.LVL67:
 705:Drivers/STM32F3xx_HAL_Driver/Src/stm32f3xx_hal_flash_ex.c ****         
 782              		.loc 1 705 18 view .LVU210
 783 0052 1581     		strh	r5, [r2, #8]	@ movhi
 708:Drivers/STM32F3xx_HAL_Driver/Src/stm32f3xx_hal_flash_ex.c ****       }
 784              		.loc 1 708 9 is_stmt 1 view .LVU211
 708:Drivers/STM32F3xx_HAL_Driver/Src/stm32f3xx_hal_flash_ex.c ****       }
 785              		.loc 1 708 18 is_stmt 0 view .LVU212
 786 0054 4CF25030 		movw	r0, #50000
 787              	.LVL68:
 708:Drivers/STM32F3xx_HAL_Driver/Src/stm32f3xx_hal_flash_ex.c ****       }
 788              		.loc 1 708 18 view .LVU213
 789 0058 FFF7FEFF 		bl	FLASH_WaitForLastOperation
ARM GAS  /var/folders/md/lgcc8l7571l9vt9sx0g0zflw0000gn/T//ccWpNrmC.s 			page 44


 790              	.LVL69:
 708:Drivers/STM32F3xx_HAL_Driver/Src/stm32f3xx_hal_flash_ex.c ****       }
 791              		.loc 1 708 18 view .LVU214
 792 005c ECE7     		b	.L53
 793              	.L58:
 715:Drivers/STM32F3xx_HAL_Driver/Src/stm32f3xx_hal_flash_ex.c ****         
 794              		.loc 1 715 9 is_stmt 1 view .LVU215
 715:Drivers/STM32F3xx_HAL_Driver/Src/stm32f3xx_hal_flash_ex.c ****         
 795              		.loc 1 715 18 is_stmt 0 view .LVU216
 796 005e 074B     		ldr	r3, .L59+8
 797 0060 5889     		ldrh	r0, [r3, #10]
 798              	.LVL70:
 715:Drivers/STM32F3xx_HAL_Driver/Src/stm32f3xx_hal_flash_ex.c ****         
 799              		.loc 1 715 18 view .LVU217
 800 0062 80B2     		uxth	r0, r0
 801 0064 2043     		orrs	r0, r0, r4
 802 0066 5881     		strh	r0, [r3, #10]	@ movhi
 718:Drivers/STM32F3xx_HAL_Driver/Src/stm32f3xx_hal_flash_ex.c ****       }
 803              		.loc 1 718 9 is_stmt 1 view .LVU218
 718:Drivers/STM32F3xx_HAL_Driver/Src/stm32f3xx_hal_flash_ex.c ****       }
 804              		.loc 1 718 18 is_stmt 0 view .LVU219
 805 0068 4CF25030 		movw	r0, #50000
 806 006c FFF7FEFF 		bl	FLASH_WaitForLastOperation
 807              	.LVL71:
 718:Drivers/STM32F3xx_HAL_Driver/Src/stm32f3xx_hal_flash_ex.c ****       }
 808              		.loc 1 718 18 view .LVU220
 809 0070 E5E7     		b	.L54
 810              	.L60:
 811 0072 00BF     		.align	2
 812              	.L59:
 813 0074 00000000 		.word	pFlash
 814 0078 00200240 		.word	1073881088
 815 007c 00F8FF1F 		.word	536868864
 816              		.cfi_endproc
 817              	.LFE134:
 819              		.section	.text.HAL_FLASHEx_OBProgram,"ax",%progbits
 820              		.align	1
 821              		.global	HAL_FLASHEx_OBProgram
 822              		.syntax unified
 823              		.thumb
 824              		.thumb_func
 825              		.fpu fpv4-sp-d16
 827              	HAL_FLASHEx_OBProgram:
 828              	.LVL72:
 829              	.LFB129:
 379:Drivers/STM32F3xx_HAL_Driver/Src/stm32f3xx_hal_flash_ex.c ****   HAL_StatusTypeDef status = HAL_ERROR;
 830              		.loc 1 379 1 is_stmt 1 view -0
 831              		.cfi_startproc
 832              		@ args = 0, pretend = 0, frame = 0
 833              		@ frame_needed = 0, uses_anonymous_args = 0
 380:Drivers/STM32F3xx_HAL_Driver/Src/stm32f3xx_hal_flash_ex.c **** 
 834              		.loc 1 380 3 view .LVU222
 383:Drivers/STM32F3xx_HAL_Driver/Src/stm32f3xx_hal_flash_ex.c **** 
 835              		.loc 1 383 3 view .LVU223
 383:Drivers/STM32F3xx_HAL_Driver/Src/stm32f3xx_hal_flash_ex.c **** 
 836              		.loc 1 383 3 view .LVU224
 837 0000 254B     		ldr	r3, .L79
ARM GAS  /var/folders/md/lgcc8l7571l9vt9sx0g0zflw0000gn/T//ccWpNrmC.s 			page 45


 838 0002 1B7E     		ldrb	r3, [r3, #24]	@ zero_extendqisi2
 839 0004 012B     		cmp	r3, #1
 840 0006 44D0     		beq	.L69
 379:Drivers/STM32F3xx_HAL_Driver/Src/stm32f3xx_hal_flash_ex.c ****   HAL_StatusTypeDef status = HAL_ERROR;
 841              		.loc 1 379 1 is_stmt 0 discriminator 2 view .LVU225
 842 0008 10B5     		push	{r4, lr}
 843              	.LCFI6:
 844              		.cfi_def_cfa_offset 8
 845              		.cfi_offset 4, -8
 846              		.cfi_offset 14, -4
 847 000a 0446     		mov	r4, r0
 383:Drivers/STM32F3xx_HAL_Driver/Src/stm32f3xx_hal_flash_ex.c **** 
 848              		.loc 1 383 3 is_stmt 1 discriminator 2 view .LVU226
 849 000c 224B     		ldr	r3, .L79
 850 000e 0122     		movs	r2, #1
 851 0010 1A76     		strb	r2, [r3, #24]
 383:Drivers/STM32F3xx_HAL_Driver/Src/stm32f3xx_hal_flash_ex.c **** 
 852              		.loc 1 383 3 discriminator 2 view .LVU227
 386:Drivers/STM32F3xx_HAL_Driver/Src/stm32f3xx_hal_flash_ex.c **** 
 853              		.loc 1 386 3 discriminator 2 view .LVU228
 389:Drivers/STM32F3xx_HAL_Driver/Src/stm32f3xx_hal_flash_ex.c ****   {
 854              		.loc 1 389 3 discriminator 2 view .LVU229
 389:Drivers/STM32F3xx_HAL_Driver/Src/stm32f3xx_hal_flash_ex.c ****   {
 855              		.loc 1 389 14 is_stmt 0 discriminator 2 view .LVU230
 856 0012 0368     		ldr	r3, [r0]
 389:Drivers/STM32F3xx_HAL_Driver/Src/stm32f3xx_hal_flash_ex.c ****   {
 857              		.loc 1 389 5 discriminator 2 view .LVU231
 858 0014 13F0010F 		tst	r3, #1
 859 0018 0ED0     		beq	.L70
 391:Drivers/STM32F3xx_HAL_Driver/Src/stm32f3xx_hal_flash_ex.c ****     if (pOBInit->WRPState == OB_WRPSTATE_ENABLE)
 860              		.loc 1 391 5 is_stmt 1 view .LVU232
 392:Drivers/STM32F3xx_HAL_Driver/Src/stm32f3xx_hal_flash_ex.c ****     {
 861              		.loc 1 392 5 view .LVU233
 392:Drivers/STM32F3xx_HAL_Driver/Src/stm32f3xx_hal_flash_ex.c ****     {
 862              		.loc 1 392 16 is_stmt 0 view .LVU234
 863 001a 4368     		ldr	r3, [r0, #4]
 392:Drivers/STM32F3xx_HAL_Driver/Src/stm32f3xx_hal_flash_ex.c ****     {
 864              		.loc 1 392 8 view .LVU235
 865 001c 9342     		cmp	r3, r2
 866 001e 07D0     		beq	.L75
 400:Drivers/STM32F3xx_HAL_Driver/Src/stm32f3xx_hal_flash_ex.c ****     }
 867              		.loc 1 400 7 is_stmt 1 view .LVU236
 400:Drivers/STM32F3xx_HAL_Driver/Src/stm32f3xx_hal_flash_ex.c ****     }
 868              		.loc 1 400 16 is_stmt 0 view .LVU237
 869 0020 8068     		ldr	r0, [r0, #8]
 870              	.LVL73:
 400:Drivers/STM32F3xx_HAL_Driver/Src/stm32f3xx_hal_flash_ex.c ****     }
 871              		.loc 1 400 16 view .LVU238
 872 0022 FFF7FEFF 		bl	FLASH_OB_DisableWRP
 873              	.LVL74:
 874              	.L65:
 402:Drivers/STM32F3xx_HAL_Driver/Src/stm32f3xx_hal_flash_ex.c ****     {
 875              		.loc 1 402 5 is_stmt 1 view .LVU239
 402:Drivers/STM32F3xx_HAL_Driver/Src/stm32f3xx_hal_flash_ex.c ****     {
 876              		.loc 1 402 8 is_stmt 0 view .LVU240
 877 0026 40B1     		cbz	r0, .L63
 405:Drivers/STM32F3xx_HAL_Driver/Src/stm32f3xx_hal_flash_ex.c ****       return status;
ARM GAS  /var/folders/md/lgcc8l7571l9vt9sx0g0zflw0000gn/T//ccWpNrmC.s 			page 46


 878              		.loc 1 405 7 is_stmt 1 view .LVU241
 405:Drivers/STM32F3xx_HAL_Driver/Src/stm32f3xx_hal_flash_ex.c ****       return status;
 879              		.loc 1 405 7 view .LVU242
 880 0028 1B4B     		ldr	r3, .L79
 881 002a 0022     		movs	r2, #0
 882 002c 1A76     		strb	r2, [r3, #24]
 405:Drivers/STM32F3xx_HAL_Driver/Src/stm32f3xx_hal_flash_ex.c ****       return status;
 883              		.loc 1 405 7 view .LVU243
 406:Drivers/STM32F3xx_HAL_Driver/Src/stm32f3xx_hal_flash_ex.c ****     }
 884              		.loc 1 406 7 view .LVU244
 406:Drivers/STM32F3xx_HAL_Driver/Src/stm32f3xx_hal_flash_ex.c ****     }
 885              		.loc 1 406 14 is_stmt 0 view .LVU245
 886 002e 13E0     		b	.L62
 887              	.LVL75:
 888              	.L75:
 395:Drivers/STM32F3xx_HAL_Driver/Src/stm32f3xx_hal_flash_ex.c ****     }
 889              		.loc 1 395 7 is_stmt 1 view .LVU246
 395:Drivers/STM32F3xx_HAL_Driver/Src/stm32f3xx_hal_flash_ex.c ****     }
 890              		.loc 1 395 16 is_stmt 0 view .LVU247
 891 0030 8068     		ldr	r0, [r0, #8]
 892              	.LVL76:
 395:Drivers/STM32F3xx_HAL_Driver/Src/stm32f3xx_hal_flash_ex.c ****     }
 893              		.loc 1 395 16 view .LVU248
 894 0032 FFF7FEFF 		bl	FLASH_OB_EnableWRP
 895              	.LVL77:
 395:Drivers/STM32F3xx_HAL_Driver/Src/stm32f3xx_hal_flash_ex.c ****     }
 896              		.loc 1 395 16 view .LVU249
 897 0036 F6E7     		b	.L65
 898              	.LVL78:
 899              	.L70:
 380:Drivers/STM32F3xx_HAL_Driver/Src/stm32f3xx_hal_flash_ex.c **** 
 900              		.loc 1 380 21 view .LVU250
 901 0038 0120     		movs	r0, #1
 902              	.LVL79:
 903              	.L63:
 411:Drivers/STM32F3xx_HAL_Driver/Src/stm32f3xx_hal_flash_ex.c ****   {
 904              		.loc 1 411 3 is_stmt 1 view .LVU251
 411:Drivers/STM32F3xx_HAL_Driver/Src/stm32f3xx_hal_flash_ex.c ****   {
 905              		.loc 1 411 14 is_stmt 0 view .LVU252
 906 003a 2368     		ldr	r3, [r4]
 411:Drivers/STM32F3xx_HAL_Driver/Src/stm32f3xx_hal_flash_ex.c ****   {
 907              		.loc 1 411 5 view .LVU253
 908 003c 13F0020F 		tst	r3, #2
 909 0040 0BD1     		bne	.L76
 910              	.L66:
 423:Drivers/STM32F3xx_HAL_Driver/Src/stm32f3xx_hal_flash_ex.c ****   {
 911              		.loc 1 423 3 is_stmt 1 view .LVU254
 423:Drivers/STM32F3xx_HAL_Driver/Src/stm32f3xx_hal_flash_ex.c ****   {
 912              		.loc 1 423 14 is_stmt 0 view .LVU255
 913 0042 2368     		ldr	r3, [r4]
 423:Drivers/STM32F3xx_HAL_Driver/Src/stm32f3xx_hal_flash_ex.c ****   {
 914              		.loc 1 423 5 view .LVU256
 915 0044 13F0040F 		tst	r3, #4
 916 0048 10D1     		bne	.L77
 917              	.L67:
 435:Drivers/STM32F3xx_HAL_Driver/Src/stm32f3xx_hal_flash_ex.c ****   {
 918              		.loc 1 435 3 is_stmt 1 view .LVU257
ARM GAS  /var/folders/md/lgcc8l7571l9vt9sx0g0zflw0000gn/T//ccWpNrmC.s 			page 47


 435:Drivers/STM32F3xx_HAL_Driver/Src/stm32f3xx_hal_flash_ex.c ****   {
 919              		.loc 1 435 14 is_stmt 0 view .LVU258
 920 004a 2368     		ldr	r3, [r4]
 435:Drivers/STM32F3xx_HAL_Driver/Src/stm32f3xx_hal_flash_ex.c ****   {
 921              		.loc 1 435 5 view .LVU259
 922 004c 13F0080F 		tst	r3, #8
 923 0050 15D1     		bne	.L78
 924              	.L68:
 447:Drivers/STM32F3xx_HAL_Driver/Src/stm32f3xx_hal_flash_ex.c **** 
 925              		.loc 1 447 3 is_stmt 1 view .LVU260
 447:Drivers/STM32F3xx_HAL_Driver/Src/stm32f3xx_hal_flash_ex.c **** 
 926              		.loc 1 447 3 view .LVU261
 927 0052 114B     		ldr	r3, .L79
 928 0054 0022     		movs	r2, #0
 929 0056 1A76     		strb	r2, [r3, #24]
 447:Drivers/STM32F3xx_HAL_Driver/Src/stm32f3xx_hal_flash_ex.c **** 
 930              		.loc 1 447 3 view .LVU262
 449:Drivers/STM32F3xx_HAL_Driver/Src/stm32f3xx_hal_flash_ex.c **** }
 931              		.loc 1 449 3 view .LVU263
 932              	.L62:
 450:Drivers/STM32F3xx_HAL_Driver/Src/stm32f3xx_hal_flash_ex.c **** 
 933              		.loc 1 450 1 is_stmt 0 view .LVU264
 934 0058 10BD     		pop	{r4, pc}
 935              	.LVL80:
 936              	.L76:
 413:Drivers/STM32F3xx_HAL_Driver/Src/stm32f3xx_hal_flash_ex.c ****     if (status != HAL_OK)
 937              		.loc 1 413 5 is_stmt 1 view .LVU265
 413:Drivers/STM32F3xx_HAL_Driver/Src/stm32f3xx_hal_flash_ex.c ****     if (status != HAL_OK)
 938              		.loc 1 413 14 is_stmt 0 view .LVU266
 939 005a 207B     		ldrb	r0, [r4, #12]	@ zero_extendqisi2
 940              	.LVL81:
 413:Drivers/STM32F3xx_HAL_Driver/Src/stm32f3xx_hal_flash_ex.c ****     if (status != HAL_OK)
 941              		.loc 1 413 14 view .LVU267
 942 005c FFF7FEFF 		bl	FLASH_OB_RDP_LevelConfig
 943              	.LVL82:
 414:Drivers/STM32F3xx_HAL_Driver/Src/stm32f3xx_hal_flash_ex.c ****     {
 944              		.loc 1 414 5 is_stmt 1 view .LVU268
 414:Drivers/STM32F3xx_HAL_Driver/Src/stm32f3xx_hal_flash_ex.c ****     {
 945              		.loc 1 414 8 is_stmt 0 view .LVU269
 946 0060 0028     		cmp	r0, #0
 947 0062 EED0     		beq	.L66
 417:Drivers/STM32F3xx_HAL_Driver/Src/stm32f3xx_hal_flash_ex.c ****       return status;
 948              		.loc 1 417 7 is_stmt 1 view .LVU270
 417:Drivers/STM32F3xx_HAL_Driver/Src/stm32f3xx_hal_flash_ex.c ****       return status;
 949              		.loc 1 417 7 view .LVU271
 950 0064 0C4B     		ldr	r3, .L79
 951 0066 0022     		movs	r2, #0
 952 0068 1A76     		strb	r2, [r3, #24]
 417:Drivers/STM32F3xx_HAL_Driver/Src/stm32f3xx_hal_flash_ex.c ****       return status;
 953              		.loc 1 417 7 view .LVU272
 418:Drivers/STM32F3xx_HAL_Driver/Src/stm32f3xx_hal_flash_ex.c ****     }
 954              		.loc 1 418 7 view .LVU273
 418:Drivers/STM32F3xx_HAL_Driver/Src/stm32f3xx_hal_flash_ex.c ****     }
 955              		.loc 1 418 14 is_stmt 0 view .LVU274
 956 006a F5E7     		b	.L62
 957              	.L77:
 425:Drivers/STM32F3xx_HAL_Driver/Src/stm32f3xx_hal_flash_ex.c ****     if (status != HAL_OK)
ARM GAS  /var/folders/md/lgcc8l7571l9vt9sx0g0zflw0000gn/T//ccWpNrmC.s 			page 48


 958              		.loc 1 425 5 is_stmt 1 view .LVU275
 425:Drivers/STM32F3xx_HAL_Driver/Src/stm32f3xx_hal_flash_ex.c ****     if (status != HAL_OK)
 959              		.loc 1 425 14 is_stmt 0 view .LVU276
 960 006c 607B     		ldrb	r0, [r4, #13]	@ zero_extendqisi2
 961              	.LVL83:
 425:Drivers/STM32F3xx_HAL_Driver/Src/stm32f3xx_hal_flash_ex.c ****     if (status != HAL_OK)
 962              		.loc 1 425 14 view .LVU277
 963 006e FFF7FEFF 		bl	FLASH_OB_UserConfig
 964              	.LVL84:
 426:Drivers/STM32F3xx_HAL_Driver/Src/stm32f3xx_hal_flash_ex.c ****     {
 965              		.loc 1 426 5 is_stmt 1 view .LVU278
 426:Drivers/STM32F3xx_HAL_Driver/Src/stm32f3xx_hal_flash_ex.c ****     {
 966              		.loc 1 426 8 is_stmt 0 view .LVU279
 967 0072 0028     		cmp	r0, #0
 968 0074 E9D0     		beq	.L67
 429:Drivers/STM32F3xx_HAL_Driver/Src/stm32f3xx_hal_flash_ex.c ****       return status;
 969              		.loc 1 429 7 is_stmt 1 view .LVU280
 429:Drivers/STM32F3xx_HAL_Driver/Src/stm32f3xx_hal_flash_ex.c ****       return status;
 970              		.loc 1 429 7 view .LVU281
 971 0076 084B     		ldr	r3, .L79
 972 0078 0022     		movs	r2, #0
 973 007a 1A76     		strb	r2, [r3, #24]
 429:Drivers/STM32F3xx_HAL_Driver/Src/stm32f3xx_hal_flash_ex.c ****       return status;
 974              		.loc 1 429 7 view .LVU282
 430:Drivers/STM32F3xx_HAL_Driver/Src/stm32f3xx_hal_flash_ex.c ****     }
 975              		.loc 1 430 7 view .LVU283
 430:Drivers/STM32F3xx_HAL_Driver/Src/stm32f3xx_hal_flash_ex.c ****     }
 976              		.loc 1 430 14 is_stmt 0 view .LVU284
 977 007c ECE7     		b	.L62
 978              	.L78:
 437:Drivers/STM32F3xx_HAL_Driver/Src/stm32f3xx_hal_flash_ex.c ****     if (status != HAL_OK)
 979              		.loc 1 437 5 is_stmt 1 view .LVU285
 437:Drivers/STM32F3xx_HAL_Driver/Src/stm32f3xx_hal_flash_ex.c ****     if (status != HAL_OK)
 980              		.loc 1 437 14 is_stmt 0 view .LVU286
 981 007e 217D     		ldrb	r1, [r4, #20]	@ zero_extendqisi2
 982 0080 2069     		ldr	r0, [r4, #16]
 983              	.LVL85:
 437:Drivers/STM32F3xx_HAL_Driver/Src/stm32f3xx_hal_flash_ex.c ****     if (status != HAL_OK)
 984              		.loc 1 437 14 view .LVU287
 985 0082 FFF7FEFF 		bl	FLASH_OB_ProgramData
 986              	.LVL86:
 438:Drivers/STM32F3xx_HAL_Driver/Src/stm32f3xx_hal_flash_ex.c ****     {
 987              		.loc 1 438 5 is_stmt 1 view .LVU288
 438:Drivers/STM32F3xx_HAL_Driver/Src/stm32f3xx_hal_flash_ex.c ****     {
 988              		.loc 1 438 8 is_stmt 0 view .LVU289
 989 0086 0028     		cmp	r0, #0
 990 0088 E3D0     		beq	.L68
 441:Drivers/STM32F3xx_HAL_Driver/Src/stm32f3xx_hal_flash_ex.c ****       return status;
 991              		.loc 1 441 7 is_stmt 1 view .LVU290
 441:Drivers/STM32F3xx_HAL_Driver/Src/stm32f3xx_hal_flash_ex.c ****       return status;
 992              		.loc 1 441 7 view .LVU291
 993 008a 034B     		ldr	r3, .L79
 994 008c 0022     		movs	r2, #0
 995 008e 1A76     		strb	r2, [r3, #24]
 441:Drivers/STM32F3xx_HAL_Driver/Src/stm32f3xx_hal_flash_ex.c ****       return status;
 996              		.loc 1 441 7 view .LVU292
 442:Drivers/STM32F3xx_HAL_Driver/Src/stm32f3xx_hal_flash_ex.c ****     }
ARM GAS  /var/folders/md/lgcc8l7571l9vt9sx0g0zflw0000gn/T//ccWpNrmC.s 			page 49


 997              		.loc 1 442 7 view .LVU293
 442:Drivers/STM32F3xx_HAL_Driver/Src/stm32f3xx_hal_flash_ex.c ****     }
 998              		.loc 1 442 14 is_stmt 0 view .LVU294
 999 0090 E2E7     		b	.L62
 1000              	.LVL87:
 1001              	.L69:
 1002              	.LCFI7:
 1003              		.cfi_def_cfa_offset 0
 1004              		.cfi_restore 4
 1005              		.cfi_restore 14
 383:Drivers/STM32F3xx_HAL_Driver/Src/stm32f3xx_hal_flash_ex.c **** 
 1006              		.loc 1 383 3 view .LVU295
 1007 0092 0220     		movs	r0, #2
 1008              	.LVL88:
 450:Drivers/STM32F3xx_HAL_Driver/Src/stm32f3xx_hal_flash_ex.c **** 
 1009              		.loc 1 450 1 view .LVU296
 1010 0094 7047     		bx	lr
 1011              	.L80:
 1012 0096 00BF     		.align	2
 1013              	.L79:
 1014 0098 00000000 		.word	pFlash
 1015              		.cfi_endproc
 1016              	.LFE129:
 1018              		.section	.text.HAL_FLASHEx_OBGetConfig,"ax",%progbits
 1019              		.align	1
 1020              		.global	HAL_FLASHEx_OBGetConfig
 1021              		.syntax unified
 1022              		.thumb
 1023              		.thumb_func
 1024              		.fpu fpv4-sp-d16
 1026              	HAL_FLASHEx_OBGetConfig:
 1027              	.LVL89:
 1028              	.LFB130:
 460:Drivers/STM32F3xx_HAL_Driver/Src/stm32f3xx_hal_flash_ex.c ****   pOBInit->OptionType = OPTIONBYTE_WRP | OPTIONBYTE_RDP | OPTIONBYTE_USER;
 1029              		.loc 1 460 1 is_stmt 1 view -0
 1030              		.cfi_startproc
 1031              		@ args = 0, pretend = 0, frame = 0
 1032              		@ frame_needed = 0, uses_anonymous_args = 0
 460:Drivers/STM32F3xx_HAL_Driver/Src/stm32f3xx_hal_flash_ex.c ****   pOBInit->OptionType = OPTIONBYTE_WRP | OPTIONBYTE_RDP | OPTIONBYTE_USER;
 1033              		.loc 1 460 1 is_stmt 0 view .LVU298
 1034 0000 10B5     		push	{r4, lr}
 1035              	.LCFI8:
 1036              		.cfi_def_cfa_offset 8
 1037              		.cfi_offset 4, -8
 1038              		.cfi_offset 14, -4
 1039 0002 0446     		mov	r4, r0
 461:Drivers/STM32F3xx_HAL_Driver/Src/stm32f3xx_hal_flash_ex.c **** 
 1040              		.loc 1 461 3 is_stmt 1 view .LVU299
 461:Drivers/STM32F3xx_HAL_Driver/Src/stm32f3xx_hal_flash_ex.c **** 
 1041              		.loc 1 461 23 is_stmt 0 view .LVU300
 1042 0004 0723     		movs	r3, #7
 1043 0006 0360     		str	r3, [r0]
 464:Drivers/STM32F3xx_HAL_Driver/Src/stm32f3xx_hal_flash_ex.c **** 
 1044              		.loc 1 464 3 is_stmt 1 view .LVU301
 464:Drivers/STM32F3xx_HAL_Driver/Src/stm32f3xx_hal_flash_ex.c **** 
 1045              		.loc 1 464 22 is_stmt 0 view .LVU302
 1046 0008 FFF7FEFF 		bl	FLASH_OB_GetWRP
ARM GAS  /var/folders/md/lgcc8l7571l9vt9sx0g0zflw0000gn/T//ccWpNrmC.s 			page 50


 1047              	.LVL90:
 464:Drivers/STM32F3xx_HAL_Driver/Src/stm32f3xx_hal_flash_ex.c **** 
 1048              		.loc 1 464 20 view .LVU303
 1049 000c A060     		str	r0, [r4, #8]
 467:Drivers/STM32F3xx_HAL_Driver/Src/stm32f3xx_hal_flash_ex.c **** 
 1050              		.loc 1 467 3 is_stmt 1 view .LVU304
 467:Drivers/STM32F3xx_HAL_Driver/Src/stm32f3xx_hal_flash_ex.c **** 
 1051              		.loc 1 467 23 is_stmt 0 view .LVU305
 1052 000e FFF7FEFF 		bl	FLASH_OB_GetRDP
 1053              	.LVL91:
 467:Drivers/STM32F3xx_HAL_Driver/Src/stm32f3xx_hal_flash_ex.c **** 
 1054              		.loc 1 467 21 view .LVU306
 1055 0012 2073     		strb	r0, [r4, #12]
 470:Drivers/STM32F3xx_HAL_Driver/Src/stm32f3xx_hal_flash_ex.c **** }
 1056              		.loc 1 470 3 is_stmt 1 view .LVU307
 470:Drivers/STM32F3xx_HAL_Driver/Src/stm32f3xx_hal_flash_ex.c **** }
 1057              		.loc 1 470 25 is_stmt 0 view .LVU308
 1058 0014 FFF7FEFF 		bl	FLASH_OB_GetUser
 1059              	.LVL92:
 470:Drivers/STM32F3xx_HAL_Driver/Src/stm32f3xx_hal_flash_ex.c **** }
 1060              		.loc 1 470 23 view .LVU309
 1061 0018 6073     		strb	r0, [r4, #13]
 471:Drivers/STM32F3xx_HAL_Driver/Src/stm32f3xx_hal_flash_ex.c **** 
 1062              		.loc 1 471 1 view .LVU310
 1063 001a 10BD     		pop	{r4, pc}
 471:Drivers/STM32F3xx_HAL_Driver/Src/stm32f3xx_hal_flash_ex.c **** 
 1064              		.loc 1 471 1 view .LVU311
 1065              		.cfi_endproc
 1066              	.LFE130:
 1068              		.section	.text.HAL_FLASHEx_OBGetUserData,"ax",%progbits
 1069              		.align	1
 1070              		.global	HAL_FLASHEx_OBGetUserData
 1071              		.syntax unified
 1072              		.thumb
 1073              		.thumb_func
 1074              		.fpu fpv4-sp-d16
 1076              	HAL_FLASHEx_OBGetUserData:
 1077              	.LVL93:
 1078              	.LFB131:
 482:Drivers/STM32F3xx_HAL_Driver/Src/stm32f3xx_hal_flash_ex.c ****   uint32_t value = 0U;
 1079              		.loc 1 482 1 is_stmt 1 view -0
 1080              		.cfi_startproc
 1081              		@ args = 0, pretend = 0, frame = 0
 1082              		@ frame_needed = 0, uses_anonymous_args = 0
 1083              		@ link register save eliminated.
 483:Drivers/STM32F3xx_HAL_Driver/Src/stm32f3xx_hal_flash_ex.c ****   
 1084              		.loc 1 483 3 view .LVU313
 485:Drivers/STM32F3xx_HAL_Driver/Src/stm32f3xx_hal_flash_ex.c ****   {
 1085              		.loc 1 485 3 view .LVU314
 485:Drivers/STM32F3xx_HAL_Driver/Src/stm32f3xx_hal_flash_ex.c ****   {
 1086              		.loc 1 485 6 is_stmt 0 view .LVU315
 1087 0000 0D4B     		ldr	r3, .L87
 1088 0002 9842     		cmp	r0, r3
 1089 0004 0BD0     		beq	.L86
 493:Drivers/STM32F3xx_HAL_Driver/Src/stm32f3xx_hal_flash_ex.c ****   }
 1090              		.loc 1 493 5 is_stmt 1 view .LVU316
 493:Drivers/STM32F3xx_HAL_Driver/Src/stm32f3xx_hal_flash_ex.c ****   }
ARM GAS  /var/folders/md/lgcc8l7571l9vt9sx0g0zflw0000gn/T//ccWpNrmC.s 			page 51


 1091              		.loc 1 493 13 is_stmt 0 view .LVU317
 1092 0006 0D4B     		ldr	r3, .L87+4
 1093 0008 D869     		ldr	r0, [r3, #28]
 1094              	.LVL94:
 493:Drivers/STM32F3xx_HAL_Driver/Src/stm32f3xx_hal_flash_ex.c ****   }
 1095              		.loc 1 493 13 view .LVU318
 1096 000a 00F07F40 		and	r0, r0, #-16777216
 1097              	.LVL95:
 1098              	.LBB10:
 1099              	.LBI10:
 526:Drivers/CMSIS/Include/cmsis_gcc.h **** {
 1100              		.loc 2 526 57 is_stmt 1 view .LVU319
 1101              	.LBB11:
 528:Drivers/CMSIS/Include/cmsis_gcc.h **** 
 1102              		.loc 2 528 3 view .LVU320
 531:Drivers/CMSIS/Include/cmsis_gcc.h **** #else
 1103              		.loc 2 531 4 view .LVU321
 1104 000e 4FF07F43 		mov	r3, #-16777216
 1105              		.syntax unified
 1106              	@ 531 "Drivers/CMSIS/Include/cmsis_gcc.h" 1
 1107 0012 93FAA3F3 		rbit r3, r3
 1108              	@ 0 "" 2
 1109              	.LVL96:
 1110              		.loc 2 544 3 view .LVU322
 1111              		.loc 2 544 3 is_stmt 0 view .LVU323
 1112              		.thumb
 1113              		.syntax unified
 1114              	.LBE11:
 1115              	.LBE10:
 493:Drivers/STM32F3xx_HAL_Driver/Src/stm32f3xx_hal_flash_ex.c ****   }
 1116              		.loc 1 493 54 view .LVU324
 1117 0016 B3FA83F3 		clz	r3, r3
 493:Drivers/STM32F3xx_HAL_Driver/Src/stm32f3xx_hal_flash_ex.c ****   }
 1118              		.loc 1 493 11 view .LVU325
 1119 001a D840     		lsrs	r0, r0, r3
 1120              	.LVL97:
 496:Drivers/STM32F3xx_HAL_Driver/Src/stm32f3xx_hal_flash_ex.c **** }
 1121              		.loc 1 496 3 is_stmt 1 view .LVU326
 497:Drivers/STM32F3xx_HAL_Driver/Src/stm32f3xx_hal_flash_ex.c **** 
 1122              		.loc 1 497 1 is_stmt 0 view .LVU327
 1123 001c 7047     		bx	lr
 1124              	.LVL98:
 1125              	.L86:
 488:Drivers/STM32F3xx_HAL_Driver/Src/stm32f3xx_hal_flash_ex.c ****   }
 1126              		.loc 1 488 5 is_stmt 1 view .LVU328
 488:Drivers/STM32F3xx_HAL_Driver/Src/stm32f3xx_hal_flash_ex.c ****   }
 1127              		.loc 1 488 13 is_stmt 0 view .LVU329
 1128 001e 074B     		ldr	r3, .L87+4
 1129 0020 D869     		ldr	r0, [r3, #28]
 1130              	.LVL99:
 488:Drivers/STM32F3xx_HAL_Driver/Src/stm32f3xx_hal_flash_ex.c ****   }
 1131              		.loc 1 488 13 view .LVU330
 1132 0022 00F47F00 		and	r0, r0, #16711680
 1133              	.LVL100:
 1134              	.LBB12:
 1135              	.LBI12:
 526:Drivers/CMSIS/Include/cmsis_gcc.h **** {
ARM GAS  /var/folders/md/lgcc8l7571l9vt9sx0g0zflw0000gn/T//ccWpNrmC.s 			page 52


 1136              		.loc 2 526 57 is_stmt 1 view .LVU331
 1137              	.LBB13:
 528:Drivers/CMSIS/Include/cmsis_gcc.h **** 
 1138              		.loc 2 528 3 view .LVU332
 531:Drivers/CMSIS/Include/cmsis_gcc.h **** #else
 1139              		.loc 2 531 4 view .LVU333
 1140 0026 4FF47F03 		mov	r3, #16711680
 1141              		.syntax unified
 1142              	@ 531 "Drivers/CMSIS/Include/cmsis_gcc.h" 1
 1143 002a 93FAA3F3 		rbit r3, r3
 1144              	@ 0 "" 2
 1145              	.LVL101:
 1146              		.loc 2 544 3 view .LVU334
 1147              		.loc 2 544 3 is_stmt 0 view .LVU335
 1148              		.thumb
 1149              		.syntax unified
 1150              	.LBE13:
 1151              	.LBE12:
 488:Drivers/STM32F3xx_HAL_Driver/Src/stm32f3xx_hal_flash_ex.c ****   }
 1152              		.loc 1 488 54 view .LVU336
 1153 002e B3FA83F3 		clz	r3, r3
 488:Drivers/STM32F3xx_HAL_Driver/Src/stm32f3xx_hal_flash_ex.c ****   }
 1154              		.loc 1 488 11 view .LVU337
 1155 0032 D840     		lsrs	r0, r0, r3
 1156              	.LVL102:
 488:Drivers/STM32F3xx_HAL_Driver/Src/stm32f3xx_hal_flash_ex.c ****   }
 1157              		.loc 1 488 11 view .LVU338
 1158 0034 7047     		bx	lr
 1159              	.L88:
 1160 0036 00BF     		.align	2
 1161              	.L87:
 1162 0038 04F8FF1F 		.word	536868868
 1163 003c 00200240 		.word	1073881088
 1164              		.cfi_endproc
 1165              	.LFE131:
 1167              		.section	.text.FLASH_PageErase,"ax",%progbits
 1168              		.align	1
 1169              		.global	FLASH_PageErase
 1170              		.syntax unified
 1171              		.thumb
 1172              		.thumb_func
 1173              		.fpu fpv4-sp-d16
 1175              	FLASH_PageErase:
 1176              	.LVL103:
 1177              	.LFB141:
 957:Drivers/STM32F3xx_HAL_Driver/Src/stm32f3xx_hal_flash_ex.c **** 
 958:Drivers/STM32F3xx_HAL_Driver/Src/stm32f3xx_hal_flash_ex.c **** /**
 959:Drivers/STM32F3xx_HAL_Driver/Src/stm32f3xx_hal_flash_ex.c ****   * @}
 960:Drivers/STM32F3xx_HAL_Driver/Src/stm32f3xx_hal_flash_ex.c ****   */
 961:Drivers/STM32F3xx_HAL_Driver/Src/stm32f3xx_hal_flash_ex.c **** 
 962:Drivers/STM32F3xx_HAL_Driver/Src/stm32f3xx_hal_flash_ex.c **** /**
 963:Drivers/STM32F3xx_HAL_Driver/Src/stm32f3xx_hal_flash_ex.c ****   * @}
 964:Drivers/STM32F3xx_HAL_Driver/Src/stm32f3xx_hal_flash_ex.c ****   */
 965:Drivers/STM32F3xx_HAL_Driver/Src/stm32f3xx_hal_flash_ex.c **** 
 966:Drivers/STM32F3xx_HAL_Driver/Src/stm32f3xx_hal_flash_ex.c **** /** @addtogroup FLASH
 967:Drivers/STM32F3xx_HAL_Driver/Src/stm32f3xx_hal_flash_ex.c ****   * @{
 968:Drivers/STM32F3xx_HAL_Driver/Src/stm32f3xx_hal_flash_ex.c ****   */
ARM GAS  /var/folders/md/lgcc8l7571l9vt9sx0g0zflw0000gn/T//ccWpNrmC.s 			page 53


 969:Drivers/STM32F3xx_HAL_Driver/Src/stm32f3xx_hal_flash_ex.c **** 
 970:Drivers/STM32F3xx_HAL_Driver/Src/stm32f3xx_hal_flash_ex.c **** /** @addtogroup FLASH_Private_Functions
 971:Drivers/STM32F3xx_HAL_Driver/Src/stm32f3xx_hal_flash_ex.c ****  * @{
 972:Drivers/STM32F3xx_HAL_Driver/Src/stm32f3xx_hal_flash_ex.c ****  */
 973:Drivers/STM32F3xx_HAL_Driver/Src/stm32f3xx_hal_flash_ex.c **** 
 974:Drivers/STM32F3xx_HAL_Driver/Src/stm32f3xx_hal_flash_ex.c **** /**
 975:Drivers/STM32F3xx_HAL_Driver/Src/stm32f3xx_hal_flash_ex.c ****   * @brief  Erase the specified FLASH memory page
 976:Drivers/STM32F3xx_HAL_Driver/Src/stm32f3xx_hal_flash_ex.c ****   * @param  PageAddress FLASH page to erase
 977:Drivers/STM32F3xx_HAL_Driver/Src/stm32f3xx_hal_flash_ex.c ****   *         The value of this parameter depend on device used within the same series      
 978:Drivers/STM32F3xx_HAL_Driver/Src/stm32f3xx_hal_flash_ex.c ****   * 
 979:Drivers/STM32F3xx_HAL_Driver/Src/stm32f3xx_hal_flash_ex.c ****   * @retval None
 980:Drivers/STM32F3xx_HAL_Driver/Src/stm32f3xx_hal_flash_ex.c ****   */
 981:Drivers/STM32F3xx_HAL_Driver/Src/stm32f3xx_hal_flash_ex.c **** void FLASH_PageErase(uint32_t PageAddress)
 982:Drivers/STM32F3xx_HAL_Driver/Src/stm32f3xx_hal_flash_ex.c **** {
 1178              		.loc 1 982 1 is_stmt 1 view -0
 1179              		.cfi_startproc
 1180              		@ args = 0, pretend = 0, frame = 0
 1181              		@ frame_needed = 0, uses_anonymous_args = 0
 1182              		@ link register save eliminated.
 983:Drivers/STM32F3xx_HAL_Driver/Src/stm32f3xx_hal_flash_ex.c ****   /* Clean the error context */
 984:Drivers/STM32F3xx_HAL_Driver/Src/stm32f3xx_hal_flash_ex.c ****   pFlash.ErrorCode = HAL_FLASH_ERROR_NONE;
 1183              		.loc 1 984 3 view .LVU340
 1184              		.loc 1 984 20 is_stmt 0 view .LVU341
 1185 0000 064B     		ldr	r3, .L90
 1186 0002 0022     		movs	r2, #0
 1187 0004 DA61     		str	r2, [r3, #28]
 985:Drivers/STM32F3xx_HAL_Driver/Src/stm32f3xx_hal_flash_ex.c **** 
 986:Drivers/STM32F3xx_HAL_Driver/Src/stm32f3xx_hal_flash_ex.c ****     /* Proceed to erase the page */
 987:Drivers/STM32F3xx_HAL_Driver/Src/stm32f3xx_hal_flash_ex.c ****     SET_BIT(FLASH->CR, FLASH_CR_PER);
 1188              		.loc 1 987 5 is_stmt 1 view .LVU342
 1189 0006 064B     		ldr	r3, .L90+4
 1190 0008 1A69     		ldr	r2, [r3, #16]
 1191 000a 42F00202 		orr	r2, r2, #2
 1192 000e 1A61     		str	r2, [r3, #16]
 988:Drivers/STM32F3xx_HAL_Driver/Src/stm32f3xx_hal_flash_ex.c ****     WRITE_REG(FLASH->AR, PageAddress);
 1193              		.loc 1 988 5 view .LVU343
 1194 0010 5861     		str	r0, [r3, #20]
 989:Drivers/STM32F3xx_HAL_Driver/Src/stm32f3xx_hal_flash_ex.c ****     SET_BIT(FLASH->CR, FLASH_CR_STRT);
 1195              		.loc 1 989 5 view .LVU344
 1196 0012 1A69     		ldr	r2, [r3, #16]
 1197 0014 42F04002 		orr	r2, r2, #64
 1198 0018 1A61     		str	r2, [r3, #16]
 990:Drivers/STM32F3xx_HAL_Driver/Src/stm32f3xx_hal_flash_ex.c **** }
 1199              		.loc 1 990 1 is_stmt 0 view .LVU345
 1200 001a 7047     		bx	lr
 1201              	.L91:
 1202              		.align	2
 1203              	.L90:
 1204 001c 00000000 		.word	pFlash
 1205 0020 00200240 		.word	1073881088
 1206              		.cfi_endproc
 1207              	.LFE141:
 1209              		.section	.text.HAL_FLASHEx_Erase,"ax",%progbits
 1210              		.align	1
 1211              		.global	HAL_FLASHEx_Erase
 1212              		.syntax unified
 1213              		.thumb
ARM GAS  /var/folders/md/lgcc8l7571l9vt9sx0g0zflw0000gn/T//ccWpNrmC.s 			page 54


 1214              		.thumb_func
 1215              		.fpu fpv4-sp-d16
 1217              	HAL_FLASHEx_Erase:
 1218              	.LVL104:
 1219              	.LFB126:
 176:Drivers/STM32F3xx_HAL_Driver/Src/stm32f3xx_hal_flash_ex.c ****   HAL_StatusTypeDef status = HAL_ERROR;
 1220              		.loc 1 176 1 is_stmt 1 view -0
 1221              		.cfi_startproc
 1222              		@ args = 0, pretend = 0, frame = 0
 1223              		@ frame_needed = 0, uses_anonymous_args = 0
 177:Drivers/STM32F3xx_HAL_Driver/Src/stm32f3xx_hal_flash_ex.c ****   uint32_t address = 0U;
 1224              		.loc 1 177 3 view .LVU347
 178:Drivers/STM32F3xx_HAL_Driver/Src/stm32f3xx_hal_flash_ex.c **** 
 1225              		.loc 1 178 3 view .LVU348
 181:Drivers/STM32F3xx_HAL_Driver/Src/stm32f3xx_hal_flash_ex.c **** 
 1226              		.loc 1 181 3 view .LVU349
 181:Drivers/STM32F3xx_HAL_Driver/Src/stm32f3xx_hal_flash_ex.c **** 
 1227              		.loc 1 181 3 view .LVU350
 1228 0000 264B     		ldr	r3, .L109
 1229 0002 1B7E     		ldrb	r3, [r3, #24]	@ zero_extendqisi2
 1230 0004 012B     		cmp	r3, #1
 1231 0006 45D0     		beq	.L99
 176:Drivers/STM32F3xx_HAL_Driver/Src/stm32f3xx_hal_flash_ex.c ****   HAL_StatusTypeDef status = HAL_ERROR;
 1232              		.loc 1 176 1 is_stmt 0 discriminator 2 view .LVU351
 1233 0008 70B5     		push	{r4, r5, r6, lr}
 1234              	.LCFI9:
 1235              		.cfi_def_cfa_offset 16
 1236              		.cfi_offset 4, -16
 1237              		.cfi_offset 5, -12
 1238              		.cfi_offset 6, -8
 1239              		.cfi_offset 14, -4
 1240 000a 0546     		mov	r5, r0
 1241 000c 0E46     		mov	r6, r1
 181:Drivers/STM32F3xx_HAL_Driver/Src/stm32f3xx_hal_flash_ex.c **** 
 1242              		.loc 1 181 3 is_stmt 1 discriminator 2 view .LVU352
 1243 000e 234B     		ldr	r3, .L109
 1244 0010 0122     		movs	r2, #1
 1245 0012 1A76     		strb	r2, [r3, #24]
 181:Drivers/STM32F3xx_HAL_Driver/Src/stm32f3xx_hal_flash_ex.c **** 
 1246              		.loc 1 181 3 discriminator 2 view .LVU353
 184:Drivers/STM32F3xx_HAL_Driver/Src/stm32f3xx_hal_flash_ex.c **** 
 1247              		.loc 1 184 3 discriminator 2 view .LVU354
 186:Drivers/STM32F3xx_HAL_Driver/Src/stm32f3xx_hal_flash_ex.c ****   {
 1248              		.loc 1 186 3 discriminator 2 view .LVU355
 186:Drivers/STM32F3xx_HAL_Driver/Src/stm32f3xx_hal_flash_ex.c ****   {
 1249              		.loc 1 186 17 is_stmt 0 discriminator 2 view .LVU356
 1250 0014 0368     		ldr	r3, [r0]
 186:Drivers/STM32F3xx_HAL_Driver/Src/stm32f3xx_hal_flash_ex.c ****   {
 1251              		.loc 1 186 6 discriminator 2 view .LVU357
 1252 0016 9342     		cmp	r3, r2
 1253 0018 20D0     		beq	.L106
 206:Drivers/STM32F3xx_HAL_Driver/Src/stm32f3xx_hal_flash_ex.c ****     assert_param(IS_FLASH_NB_PAGES(pEraseInit->PageAddress, pEraseInit->NbPages));
 1254              		.loc 1 206 5 is_stmt 1 view .LVU358
 207:Drivers/STM32F3xx_HAL_Driver/Src/stm32f3xx_hal_flash_ex.c ****     
 1255              		.loc 1 207 5 view .LVU359
 211:Drivers/STM32F3xx_HAL_Driver/Src/stm32f3xx_hal_flash_ex.c ****       {
 1256              		.loc 1 211 7 view .LVU360
ARM GAS  /var/folders/md/lgcc8l7571l9vt9sx0g0zflw0000gn/T//ccWpNrmC.s 			page 55


 211:Drivers/STM32F3xx_HAL_Driver/Src/stm32f3xx_hal_flash_ex.c ****       {
 1257              		.loc 1 211 11 is_stmt 0 view .LVU361
 1258 001a 4CF25030 		movw	r0, #50000
 1259              	.LVL105:
 211:Drivers/STM32F3xx_HAL_Driver/Src/stm32f3xx_hal_flash_ex.c ****       {
 1260              		.loc 1 211 11 view .LVU362
 1261 001e FFF7FEFF 		bl	FLASH_WaitForLastOperation
 1262              	.LVL106:
 211:Drivers/STM32F3xx_HAL_Driver/Src/stm32f3xx_hal_flash_ex.c ****       {
 1263              		.loc 1 211 10 view .LVU363
 1264 0022 88BB     		cbnz	r0, .L101
 214:Drivers/STM32F3xx_HAL_Driver/Src/stm32f3xx_hal_flash_ex.c ****         
 1265              		.loc 1 214 9 is_stmt 1 view .LVU364
 214:Drivers/STM32F3xx_HAL_Driver/Src/stm32f3xx_hal_flash_ex.c ****         
 1266              		.loc 1 214 20 is_stmt 0 view .LVU365
 1267 0024 4FF0FF33 		mov	r3, #-1
 1268 0028 3360     		str	r3, [r6]
 217:Drivers/STM32F3xx_HAL_Driver/Src/stm32f3xx_hal_flash_ex.c ****             address < ((pEraseInit->NbPages * FLASH_PAGE_SIZE) + pEraseInit->PageAddress);
 1269              		.loc 1 217 9 is_stmt 1 view .LVU366
 217:Drivers/STM32F3xx_HAL_Driver/Src/stm32f3xx_hal_flash_ex.c ****             address < ((pEraseInit->NbPages * FLASH_PAGE_SIZE) + pEraseInit->PageAddress);
 1270              		.loc 1 217 21 is_stmt 0 view .LVU367
 1271 002a 6C68     		ldr	r4, [r5, #4]
 1272              	.LVL107:
 177:Drivers/STM32F3xx_HAL_Driver/Src/stm32f3xx_hal_flash_ex.c ****   uint32_t address = 0U;
 1273              		.loc 1 177 21 view .LVU368
 1274 002c 0121     		movs	r1, #1
 1275              	.LVL108:
 1276              	.L96:
 218:Drivers/STM32F3xx_HAL_Driver/Src/stm32f3xx_hal_flash_ex.c ****             address += FLASH_PAGE_SIZE)
 1277              		.loc 1 218 13 is_stmt 1 discriminator 1 view .LVU369
 218:Drivers/STM32F3xx_HAL_Driver/Src/stm32f3xx_hal_flash_ex.c ****             address += FLASH_PAGE_SIZE)
 1278              		.loc 1 218 35 is_stmt 0 discriminator 1 view .LVU370
 1279 002e AA68     		ldr	r2, [r5, #8]
 218:Drivers/STM32F3xx_HAL_Driver/Src/stm32f3xx_hal_flash_ex.c ****             address += FLASH_PAGE_SIZE)
 1280              		.loc 1 218 76 discriminator 1 view .LVU371
 1281 0030 6B68     		ldr	r3, [r5, #4]
 218:Drivers/STM32F3xx_HAL_Driver/Src/stm32f3xx_hal_flash_ex.c ****             address += FLASH_PAGE_SIZE)
 1282              		.loc 1 218 64 discriminator 1 view .LVU372
 1283 0032 03EBC223 		add	r3, r3, r2, lsl #11
 217:Drivers/STM32F3xx_HAL_Driver/Src/stm32f3xx_hal_flash_ex.c ****             address < ((pEraseInit->NbPages * FLASH_PAGE_SIZE) + pEraseInit->PageAddress);
 1284              		.loc 1 217 9 discriminator 1 view .LVU373
 1285 0036 A342     		cmp	r3, r4
 1286 0038 27D9     		bls	.L95
 221:Drivers/STM32F3xx_HAL_Driver/Src/stm32f3xx_hal_flash_ex.c ****           
 1287              		.loc 1 221 11 is_stmt 1 view .LVU374
 1288 003a 2046     		mov	r0, r4
 1289 003c FFF7FEFF 		bl	FLASH_PageErase
 1290              	.LVL109:
 224:Drivers/STM32F3xx_HAL_Driver/Src/stm32f3xx_hal_flash_ex.c ****           
 1291              		.loc 1 224 11 view .LVU375
 224:Drivers/STM32F3xx_HAL_Driver/Src/stm32f3xx_hal_flash_ex.c ****           
 1292              		.loc 1 224 20 is_stmt 0 view .LVU376
 1293 0040 4CF25030 		movw	r0, #50000
 1294 0044 FFF7FEFF 		bl	FLASH_WaitForLastOperation
 1295              	.LVL110:
 227:Drivers/STM32F3xx_HAL_Driver/Src/stm32f3xx_hal_flash_ex.c ****           
 1296              		.loc 1 227 11 is_stmt 1 view .LVU377
ARM GAS  /var/folders/md/lgcc8l7571l9vt9sx0g0zflw0000gn/T//ccWpNrmC.s 			page 56


 1297 0048 154A     		ldr	r2, .L109+4
 1298 004a 1369     		ldr	r3, [r2, #16]
 1299 004c 23F00203 		bic	r3, r3, #2
 1300 0050 1361     		str	r3, [r2, #16]
 229:Drivers/STM32F3xx_HAL_Driver/Src/stm32f3xx_hal_flash_ex.c ****           {
 1301              		.loc 1 229 11 view .LVU378
 229:Drivers/STM32F3xx_HAL_Driver/Src/stm32f3xx_hal_flash_ex.c ****           {
 1302              		.loc 1 229 14 is_stmt 0 view .LVU379
 1303 0052 0146     		mov	r1, r0
 1304 0054 B0B9     		cbnz	r0, .L107
 219:Drivers/STM32F3xx_HAL_Driver/Src/stm32f3xx_hal_flash_ex.c ****         {
 1305              		.loc 1 219 13 is_stmt 1 view .LVU380
 219:Drivers/STM32F3xx_HAL_Driver/Src/stm32f3xx_hal_flash_ex.c ****         {
 1306              		.loc 1 219 21 is_stmt 0 view .LVU381
 1307 0056 04F50064 		add	r4, r4, #2048
 1308              	.LVL111:
 219:Drivers/STM32F3xx_HAL_Driver/Src/stm32f3xx_hal_flash_ex.c ****         {
 1309              		.loc 1 219 21 view .LVU382
 1310 005a E8E7     		b	.L96
 1311              	.LVL112:
 1312              	.L106:
 190:Drivers/STM32F3xx_HAL_Driver/Src/stm32f3xx_hal_flash_ex.c ****       {
 1313              		.loc 1 190 7 is_stmt 1 view .LVU383
 190:Drivers/STM32F3xx_HAL_Driver/Src/stm32f3xx_hal_flash_ex.c ****       {
 1314              		.loc 1 190 11 is_stmt 0 view .LVU384
 1315 005c 4CF25030 		movw	r0, #50000
 1316              	.LVL113:
 190:Drivers/STM32F3xx_HAL_Driver/Src/stm32f3xx_hal_flash_ex.c ****       {
 1317              		.loc 1 190 11 view .LVU385
 1318 0060 FFF7FEFF 		bl	FLASH_WaitForLastOperation
 1319              	.LVL114:
 190:Drivers/STM32F3xx_HAL_Driver/Src/stm32f3xx_hal_flash_ex.c ****       {
 1320              		.loc 1 190 10 view .LVU386
 1321 0064 08B1     		cbz	r0, .L108
 177:Drivers/STM32F3xx_HAL_Driver/Src/stm32f3xx_hal_flash_ex.c ****   uint32_t address = 0U;
 1322              		.loc 1 177 21 view .LVU387
 1323 0066 0121     		movs	r1, #1
 1324 0068 0FE0     		b	.L95
 1325              	.L108:
 193:Drivers/STM32F3xx_HAL_Driver/Src/stm32f3xx_hal_flash_ex.c ****         
 1326              		.loc 1 193 9 is_stmt 1 view .LVU388
 1327 006a FFF7FEFF 		bl	FLASH_MassErase
 1328              	.LVL115:
 196:Drivers/STM32F3xx_HAL_Driver/Src/stm32f3xx_hal_flash_ex.c ****         
 1329              		.loc 1 196 9 view .LVU389
 196:Drivers/STM32F3xx_HAL_Driver/Src/stm32f3xx_hal_flash_ex.c ****         
 1330              		.loc 1 196 18 is_stmt 0 view .LVU390
 1331 006e 4CF25030 		movw	r0, #50000
 1332 0072 FFF7FEFF 		bl	FLASH_WaitForLastOperation
 1333              	.LVL116:
 1334 0076 0146     		mov	r1, r0
 1335              	.LVL117:
 199:Drivers/STM32F3xx_HAL_Driver/Src/stm32f3xx_hal_flash_ex.c ****       }
 1336              		.loc 1 199 9 is_stmt 1 view .LVU391
 1337 0078 094A     		ldr	r2, .L109+4
 1338 007a 1369     		ldr	r3, [r2, #16]
 1339 007c 23F00403 		bic	r3, r3, #4
ARM GAS  /var/folders/md/lgcc8l7571l9vt9sx0g0zflw0000gn/T//ccWpNrmC.s 			page 57


 1340 0080 1361     		str	r3, [r2, #16]
 1341 0082 02E0     		b	.L95
 1342              	.LVL118:
 1343              	.L107:
 232:Drivers/STM32F3xx_HAL_Driver/Src/stm32f3xx_hal_flash_ex.c ****             break;
 1344              		.loc 1 232 13 view .LVU392
 232:Drivers/STM32F3xx_HAL_Driver/Src/stm32f3xx_hal_flash_ex.c ****             break;
 1345              		.loc 1 232 24 is_stmt 0 view .LVU393
 1346 0084 3460     		str	r4, [r6]
 233:Drivers/STM32F3xx_HAL_Driver/Src/stm32f3xx_hal_flash_ex.c ****           }
 1347              		.loc 1 233 13 is_stmt 1 view .LVU394
 1348 0086 00E0     		b	.L95
 1349              	.LVL119:
 1350              	.L101:
 177:Drivers/STM32F3xx_HAL_Driver/Src/stm32f3xx_hal_flash_ex.c ****   uint32_t address = 0U;
 1351              		.loc 1 177 21 is_stmt 0 view .LVU395
 1352 0088 0121     		movs	r1, #1
 1353              	.LVL120:
 1354              	.L95:
 240:Drivers/STM32F3xx_HAL_Driver/Src/stm32f3xx_hal_flash_ex.c **** 
 1355              		.loc 1 240 3 is_stmt 1 view .LVU396
 240:Drivers/STM32F3xx_HAL_Driver/Src/stm32f3xx_hal_flash_ex.c **** 
 1356              		.loc 1 240 3 view .LVU397
 1357 008a 044B     		ldr	r3, .L109
 1358 008c 0022     		movs	r2, #0
 1359 008e 1A76     		strb	r2, [r3, #24]
 240:Drivers/STM32F3xx_HAL_Driver/Src/stm32f3xx_hal_flash_ex.c **** 
 1360              		.loc 1 240 3 view .LVU398
 242:Drivers/STM32F3xx_HAL_Driver/Src/stm32f3xx_hal_flash_ex.c **** }
 1361              		.loc 1 242 3 view .LVU399
 243:Drivers/STM32F3xx_HAL_Driver/Src/stm32f3xx_hal_flash_ex.c **** 
 1362              		.loc 1 243 1 is_stmt 0 view .LVU400
 1363 0090 0846     		mov	r0, r1
 1364 0092 70BD     		pop	{r4, r5, r6, pc}
 1365              	.LVL121:
 1366              	.L99:
 1367              	.LCFI10:
 1368              		.cfi_def_cfa_offset 0
 1369              		.cfi_restore 4
 1370              		.cfi_restore 5
 1371              		.cfi_restore 6
 1372              		.cfi_restore 14
 181:Drivers/STM32F3xx_HAL_Driver/Src/stm32f3xx_hal_flash_ex.c **** 
 1373              		.loc 1 181 3 view .LVU401
 1374 0094 0221     		movs	r1, #2
 1375              	.LVL122:
 243:Drivers/STM32F3xx_HAL_Driver/Src/stm32f3xx_hal_flash_ex.c **** 
 1376              		.loc 1 243 1 view .LVU402
 1377 0096 0846     		mov	r0, r1
 1378              	.LVL123:
 243:Drivers/STM32F3xx_HAL_Driver/Src/stm32f3xx_hal_flash_ex.c **** 
 1379              		.loc 1 243 1 view .LVU403
 1380 0098 7047     		bx	lr
 1381              	.L110:
 1382 009a 00BF     		.align	2
 1383              	.L109:
 1384 009c 00000000 		.word	pFlash
ARM GAS  /var/folders/md/lgcc8l7571l9vt9sx0g0zflw0000gn/T//ccWpNrmC.s 			page 58


 1385 00a0 00200240 		.word	1073881088
 1386              		.cfi_endproc
 1387              	.LFE126:
 1389              		.section	.text.HAL_FLASHEx_Erase_IT,"ax",%progbits
 1390              		.align	1
 1391              		.global	HAL_FLASHEx_Erase_IT
 1392              		.syntax unified
 1393              		.thumb
 1394              		.thumb_func
 1395              		.fpu fpv4-sp-d16
 1397              	HAL_FLASHEx_Erase_IT:
 1398              	.LVL124:
 1399              	.LFB127:
 257:Drivers/STM32F3xx_HAL_Driver/Src/stm32f3xx_hal_flash_ex.c ****   HAL_StatusTypeDef status = HAL_OK;
 1400              		.loc 1 257 1 is_stmt 1 view -0
 1401              		.cfi_startproc
 1402              		@ args = 0, pretend = 0, frame = 0
 1403              		@ frame_needed = 0, uses_anonymous_args = 0
 257:Drivers/STM32F3xx_HAL_Driver/Src/stm32f3xx_hal_flash_ex.c ****   HAL_StatusTypeDef status = HAL_OK;
 1404              		.loc 1 257 1 is_stmt 0 view .LVU405
 1405 0000 10B5     		push	{r4, lr}
 1406              	.LCFI11:
 1407              		.cfi_def_cfa_offset 8
 1408              		.cfi_offset 4, -8
 1409              		.cfi_offset 14, -4
 258:Drivers/STM32F3xx_HAL_Driver/Src/stm32f3xx_hal_flash_ex.c **** 
 1410              		.loc 1 258 3 is_stmt 1 view .LVU406
 1411              	.LVL125:
 261:Drivers/STM32F3xx_HAL_Driver/Src/stm32f3xx_hal_flash_ex.c **** 
 1412              		.loc 1 261 3 view .LVU407
 261:Drivers/STM32F3xx_HAL_Driver/Src/stm32f3xx_hal_flash_ex.c **** 
 1413              		.loc 1 261 3 view .LVU408
 1414 0002 144B     		ldr	r3, .L118
 1415 0004 1B7E     		ldrb	r3, [r3, #24]	@ zero_extendqisi2
 1416 0006 012B     		cmp	r3, #1
 1417 0008 1FD0     		beq	.L114
 261:Drivers/STM32F3xx_HAL_Driver/Src/stm32f3xx_hal_flash_ex.c **** 
 1418              		.loc 1 261 3 discriminator 2 view .LVU409
 1419 000a 124B     		ldr	r3, .L118
 1420 000c 0122     		movs	r2, #1
 1421 000e 1A76     		strb	r2, [r3, #24]
 261:Drivers/STM32F3xx_HAL_Driver/Src/stm32f3xx_hal_flash_ex.c **** 
 1422              		.loc 1 261 3 discriminator 2 view .LVU410
 264:Drivers/STM32F3xx_HAL_Driver/Src/stm32f3xx_hal_flash_ex.c ****   {
 1423              		.loc 1 264 3 discriminator 2 view .LVU411
 264:Drivers/STM32F3xx_HAL_Driver/Src/stm32f3xx_hal_flash_ex.c ****   {
 1424              		.loc 1 264 13 is_stmt 0 discriminator 2 view .LVU412
 1425 0010 1B78     		ldrb	r3, [r3]	@ zero_extendqisi2
 264:Drivers/STM32F3xx_HAL_Driver/Src/stm32f3xx_hal_flash_ex.c ****   {
 1426              		.loc 1 264 6 discriminator 2 view .LVU413
 1427 0012 03F0FF04 		and	r4, r3, #255
 1428 0016 D3B9     		cbnz	r3, .L115
 270:Drivers/STM32F3xx_HAL_Driver/Src/stm32f3xx_hal_flash_ex.c **** 
 1429              		.loc 1 270 3 is_stmt 1 view .LVU414
 273:Drivers/STM32F3xx_HAL_Driver/Src/stm32f3xx_hal_flash_ex.c **** 
 1430              		.loc 1 273 3 view .LVU415
 1431 0018 0F4A     		ldr	r2, .L118+4
ARM GAS  /var/folders/md/lgcc8l7571l9vt9sx0g0zflw0000gn/T//ccWpNrmC.s 			page 59


 1432 001a 1369     		ldr	r3, [r2, #16]
 1433 001c 43F4A053 		orr	r3, r3, #5120
 1434 0020 1361     		str	r3, [r2, #16]
 275:Drivers/STM32F3xx_HAL_Driver/Src/stm32f3xx_hal_flash_ex.c ****   {
 1435              		.loc 1 275 3 view .LVU416
 275:Drivers/STM32F3xx_HAL_Driver/Src/stm32f3xx_hal_flash_ex.c ****   {
 1436              		.loc 1 275 17 is_stmt 0 view .LVU417
 1437 0022 0368     		ldr	r3, [r0]
 275:Drivers/STM32F3xx_HAL_Driver/Src/stm32f3xx_hal_flash_ex.c ****   {
 1438              		.loc 1 275 6 view .LVU418
 1439 0024 012B     		cmp	r3, #1
 1440 0026 0AD0     		beq	.L117
 286:Drivers/STM32F3xx_HAL_Driver/Src/stm32f3xx_hal_flash_ex.c ****     assert_param(IS_FLASH_NB_PAGES(pEraseInit->PageAddress, pEraseInit->NbPages));
 1441              		.loc 1 286 5 is_stmt 1 view .LVU419
 287:Drivers/STM32F3xx_HAL_Driver/Src/stm32f3xx_hal_flash_ex.c **** 
 1442              		.loc 1 287 5 view .LVU420
 289:Drivers/STM32F3xx_HAL_Driver/Src/stm32f3xx_hal_flash_ex.c ****     pFlash.DataRemaining = pEraseInit->NbPages;
 1443              		.loc 1 289 5 view .LVU421
 289:Drivers/STM32F3xx_HAL_Driver/Src/stm32f3xx_hal_flash_ex.c ****     pFlash.DataRemaining = pEraseInit->NbPages;
 1444              		.loc 1 289 29 is_stmt 0 view .LVU422
 1445 0028 0A4B     		ldr	r3, .L118
 1446 002a 0122     		movs	r2, #1
 1447 002c 1A70     		strb	r2, [r3]
 290:Drivers/STM32F3xx_HAL_Driver/Src/stm32f3xx_hal_flash_ex.c ****     pFlash.Address = pEraseInit->PageAddress;
 1448              		.loc 1 290 5 is_stmt 1 view .LVU423
 290:Drivers/STM32F3xx_HAL_Driver/Src/stm32f3xx_hal_flash_ex.c ****     pFlash.Address = pEraseInit->PageAddress;
 1449              		.loc 1 290 38 is_stmt 0 view .LVU424
 1450 002e 8268     		ldr	r2, [r0, #8]
 290:Drivers/STM32F3xx_HAL_Driver/Src/stm32f3xx_hal_flash_ex.c ****     pFlash.Address = pEraseInit->PageAddress;
 1451              		.loc 1 290 26 view .LVU425
 1452 0030 5A60     		str	r2, [r3, #4]
 291:Drivers/STM32F3xx_HAL_Driver/Src/stm32f3xx_hal_flash_ex.c **** 
 1453              		.loc 1 291 5 is_stmt 1 view .LVU426
 291:Drivers/STM32F3xx_HAL_Driver/Src/stm32f3xx_hal_flash_ex.c **** 
 1454              		.loc 1 291 32 is_stmt 0 view .LVU427
 1455 0032 4068     		ldr	r0, [r0, #4]
 1456              	.LVL126:
 291:Drivers/STM32F3xx_HAL_Driver/Src/stm32f3xx_hal_flash_ex.c **** 
 1457              		.loc 1 291 20 view .LVU428
 1458 0034 9860     		str	r0, [r3, #8]
 294:Drivers/STM32F3xx_HAL_Driver/Src/stm32f3xx_hal_flash_ex.c ****   }
 1459              		.loc 1 294 5 is_stmt 1 view .LVU429
 1460 0036 FFF7FEFF 		bl	FLASH_PageErase
 1461              	.LVL127:
 1462              	.L112:
 298:Drivers/STM32F3xx_HAL_Driver/Src/stm32f3xx_hal_flash_ex.c **** 
 1463              		.loc 1 298 1 is_stmt 0 view .LVU430
 1464 003a 2046     		mov	r0, r4
 1465 003c 10BD     		pop	{r4, pc}
 1466              	.LVL128:
 1467              	.L117:
 278:Drivers/STM32F3xx_HAL_Driver/Src/stm32f3xx_hal_flash_ex.c ****         FLASH_MassErase();
 1468              		.loc 1 278 5 is_stmt 1 view .LVU431
 278:Drivers/STM32F3xx_HAL_Driver/Src/stm32f3xx_hal_flash_ex.c ****         FLASH_MassErase();
 1469              		.loc 1 278 29 is_stmt 0 view .LVU432
 1470 003e 054B     		ldr	r3, .L118
 1471 0040 0222     		movs	r2, #2
ARM GAS  /var/folders/md/lgcc8l7571l9vt9sx0g0zflw0000gn/T//ccWpNrmC.s 			page 60


 1472 0042 1A70     		strb	r2, [r3]
 279:Drivers/STM32F3xx_HAL_Driver/Src/stm32f3xx_hal_flash_ex.c ****   }
 1473              		.loc 1 279 9 is_stmt 1 view .LVU433
 1474 0044 FFF7FEFF 		bl	FLASH_MassErase
 1475              	.LVL129:
 279:Drivers/STM32F3xx_HAL_Driver/Src/stm32f3xx_hal_flash_ex.c ****   }
 1476              		.loc 1 279 9 is_stmt 0 view .LVU434
 1477 0048 F7E7     		b	.L112
 1478              	.LVL130:
 1479              	.L114:
 261:Drivers/STM32F3xx_HAL_Driver/Src/stm32f3xx_hal_flash_ex.c **** 
 1480              		.loc 1 261 3 view .LVU435
 1481 004a 0224     		movs	r4, #2
 1482 004c F5E7     		b	.L112
 1483              	.L115:
 266:Drivers/STM32F3xx_HAL_Driver/Src/stm32f3xx_hal_flash_ex.c ****   }
 1484              		.loc 1 266 12 view .LVU436
 1485 004e 0124     		movs	r4, #1
 1486 0050 F3E7     		b	.L112
 1487              	.L119:
 1488 0052 00BF     		.align	2
 1489              	.L118:
 1490 0054 00000000 		.word	pFlash
 1491 0058 00200240 		.word	1073881088
 1492              		.cfi_endproc
 1493              	.LFE127:
 1495              		.text
 1496              	.Letext0:
 1497              		.file 3 "/usr/local/gcc-arm-none-eabi-9-2020-q2-update/arm-none-eabi/include/machine/_default_type
 1498              		.file 4 "/usr/local/gcc-arm-none-eabi-9-2020-q2-update/arm-none-eabi/include/sys/_stdint.h"
 1499              		.file 5 "Drivers/CMSIS/Include/core_cm4.h"
 1500              		.file 6 "Drivers/CMSIS/Device/ST/STM32F3xx/Include/system_stm32f3xx.h"
 1501              		.file 7 "Drivers/CMSIS/Device/ST/STM32F3xx/Include/stm32f303x8.h"
 1502              		.file 8 "/usr/local/gcc-arm-none-eabi-9-2020-q2-update/lib/gcc/arm-none-eabi/9.3.1/include/stddef.
 1503              		.file 9 "/usr/local/gcc-arm-none-eabi-9-2020-q2-update/arm-none-eabi/include/sys/_types.h"
 1504              		.file 10 "/usr/local/gcc-arm-none-eabi-9-2020-q2-update/arm-none-eabi/include/sys/reent.h"
 1505              		.file 11 "/usr/local/gcc-arm-none-eabi-9-2020-q2-update/arm-none-eabi/include/sys/lock.h"
 1506              		.file 12 "Drivers/STM32F3xx_HAL_Driver/Inc/stm32f3xx_hal_def.h"
 1507              		.file 13 "Drivers/STM32F3xx_HAL_Driver/Inc/stm32f3xx_hal_flash.h"
 1508              		.file 14 "Drivers/STM32F3xx_HAL_Driver/Inc/stm32f3xx_hal_flash_ex.h"
 1509              		.file 15 "Drivers/STM32F3xx_HAL_Driver/Inc/stm32f3xx_hal.h"
ARM GAS  /var/folders/md/lgcc8l7571l9vt9sx0g0zflw0000gn/T//ccWpNrmC.s 			page 61

